
../build/kernel8.img.elf:     file format elf64-littleaarch64


Disassembly of section .text:

0000000000080000 <__start>:
   80000:	d53800a1 	mrs	x1, mpidr_el1
   80004:	92400421 	and	x1, x1, #0x3
   80008:	b5000541 	cbnz	x1, 800b0 <halt>
   8000c:	d5384240 	mrs	x0, currentel
   80010:	d342fc00 	lsr	x0, x0, #2
   80014:	f1000c1f 	cmp	x0, #0x3
   80018:	54000080 	b.eq	80028 <__start+0x28>  // b.none
   8001c:	f100081f 	cmp	x0, #0x2
   80020:	540001a0 	b.eq	80054 <__start+0x54>  // b.none
   80024:	14000015 	b	80078 <__start+0x78>
   80028:	58000480 	ldr	x0, 800b8 <halt+0x8>
   8002c:	d5181000 	msr	sctlr_el1, x0
   80030:	58000480 	ldr	x0, 800c0 <halt+0x10>
   80034:	d51c1100 	msr	hcr_el2, x0
   80038:	58000480 	ldr	x0, 800c8 <halt+0x18>
   8003c:	d51e1100 	msr	scr_el3, x0
   80040:	58000480 	ldr	x0, 800d0 <halt+0x20>
   80044:	d51e4000 	msr	spsr_el3, x0
   80048:	10000180 	adr	x0, 80078 <__start+0x78>
   8004c:	d51e4020 	msr	elr_el3, x0
   80050:	d69f03e0 	eret
   80054:	58000320 	ldr	x0, 800b8 <halt+0x8>
   80058:	d5181000 	msr	sctlr_el1, x0
   8005c:	58000320 	ldr	x0, 800c0 <halt+0x10>
   80060:	d51c1100 	msr	hcr_el2, x0
   80064:	58000360 	ldr	x0, 800d0 <halt+0x20>
   80068:	d51c4000 	msr	spsr_el2, x0
   8006c:	10000060 	adr	x0, 80078 <__start+0x78>
   80070:	d51c4020 	msr	elr_el2, x0
   80074:	d69f03e0 	eret
   80078:	58000301 	ldr	x1, 800d8 <halt+0x28>
   8007c:	9100003f 	mov	sp, x1
   80080:	d2820001 	mov	x1, #0x1000                	// #4096
   80084:	8b2163ff 	add	sp, sp, x1
   80088:	580002c1 	ldr	x1, 800e0 <halt+0x30>
   8008c:	580002e2 	ldr	x2, 800e8 <halt+0x38>
   80090:	eb02003f 	cmp	x1, x2
   80094:	54000082 	b.cs	800a4 <__start+0xa4>  // b.hs, b.nlast
   80098:	f800843f 	str	xzr, [x1], #8
   8009c:	91002021 	add	x1, x1, #0x8
   800a0:	17fffffc 	b	80090 <__start+0x90>
   800a4:	d2802000 	mov	x0, #0x100                 	// #256
   800a8:	940012aa 	bl	84b50 <kernel_main>
   800ac:	14000001 	b	800b0 <halt>

00000000000800b0 <halt>:
   800b0:	d503205f 	wfe
   800b4:	17ffffff 	b	800b0 <halt>
   800b8:	30d00800 	.word	0x30d00800
   800bc:	00000000 	.word	0x00000000
   800c0:	80000000 	.word	0x80000000
   800c4:	00000000 	.word	0x00000000
   800c8:	00000431 	.word	0x00000431
   800cc:	00000000 	.word	0x00000000
   800d0:	000001c5 	.word	0x000001c5
   800d4:	00000000 	.word	0x00000000
   800d8:	000ce000 	.word	0x000ce000
   800dc:	00000000 	.word	0x00000000
   800e0:	000cd000 	.word	0x000cd000
   800e4:	00000000 	.word	0x00000000
   800e8:	000ce000 	.word	0x000ce000
   800ec:	00000000 	.word	0x00000000

00000000000800f0 <_ZN10graphics2d11create_viewER6Threadjjjjh>:
   800f0:	a9b97bfd 	stp	x29, x30, [sp, #-112]!
   800f4:	910003fd 	mov	x29, sp
   800f8:	a90153f3 	stp	x19, x20, [sp, #16]
   800fc:	90000274 	adrp	x20, cc000 <_ZN10graphics2d4font12_GLOBAL__N_110bufferDataE+0x20c78>
   80100:	a9025bf5 	stp	x21, x22, [sp, #32]
   80104:	2a0403f6 	mov	w22, w4
   80108:	a90363f7 	stp	x23, x24, [sp, #48]
   8010c:	2a0303f7 	mov	w23, w3
   80110:	2a0203f8 	mov	w24, w2
   80114:	a9046bf9 	stp	x25, x26, [sp, #64]
   80118:	2a0103f9 	mov	w25, w1
   8011c:	a90573fb 	stp	x27, x28, [sp, #80]
   80120:	aa0003fc 	mov	x28, x0
   80124:	12001cbb 	and	w27, w5, #0xff
   80128:	94000aae 	bl	82be0 <_ZN9scheduler4lockEv>
   8012c:	f9417a9a 	ldr	x26, [x20, #752]
   80130:	90000040 	adrp	x0, 88000 <__rodata_start>
   80134:	91000000 	add	x0, x0, #0x0
   80138:	39407341 	ldrb	w1, [x26, #28]
   8013c:	3861c815 	ldrb	w21, [x0, w1, sxtw]
   80140:	1b167eb5 	mul	w21, w21, w22
   80144:	1b177ea0 	mul	w0, w21, w23
   80148:	aa0003f5 	mov	x21, x0
   8014c:	940005b5 	bl	81820 <_ZN6memory7kmallocEm>
   80150:	b4000700 	cbz	x0, 80230 <_ZN10graphics2d11create_viewER6Threadjjjjh+0x140>
   80154:	2a1503e1 	mov	w1, w21
   80158:	f90037e0 	str	x0, [sp, #104]
   8015c:	9400184d 	bl	86290 <_Z5bzeroPvi>
   80160:	d2800e00 	mov	x0, #0x70                  	// #112
   80164:	940005af 	bl	81820 <_ZN6memory7kmallocEm>
   80168:	aa0003f3 	mov	x19, x0
   8016c:	b4000620 	cbz	x0, 80230 <_ZN10graphics2d11create_viewER6Threadjjjjh+0x140>
   80170:	f9414684 	ldr	x4, [x20, #648]
   80174:	91014000 	add	x0, x0, #0x50
   80178:	b9401f43 	ldr	w3, [x26, #28]
   8017c:	b9002a63 	str	w3, [x19, #40]
   80180:	f9415683 	ldr	x3, [x20, #680]
   80184:	f9000a7c 	str	x28, [x19, #16]
   80188:	f94037e2 	ldr	x2, [sp, #104]
   8018c:	29036279 	stp	w25, w24, [x19, #24]
   80190:	3900827b 	strb	w27, [x19, #32]
   80194:	91004063 	add	x3, x3, #0x10
   80198:	f9001a62 	str	x2, [x19, #48]
   8019c:	29075e75 	stp	w21, w23, [x19, #56]
   801a0:	b9004276 	str	w22, [x19, #64]
   801a4:	b9004a7f 	str	wzr, [x19, #72]
   801a8:	f9400481 	ldr	x1, [x4, #8]
   801ac:	f9000c13 	str	x19, [x0, #24]
   801b0:	f9002a63 	str	x3, [x19, #80]
   801b4:	b4000041 	cbz	x1, 801bc <_ZN10graphics2d11create_viewER6Threadjjjjh+0xcc>
   801b8:	f9000033 	str	x19, [x1]
   801bc:	f9414682 	ldr	x2, [x20, #648]
   801c0:	a900067f 	stp	xzr, x1, [x19]
   801c4:	f9400041 	ldr	x1, [x2]
   801c8:	f9000453 	str	x19, [x2, #8]
   801cc:	b40003a1 	cbz	x1, 80240 <_ZN10graphics2d11create_viewER6Threadjjjjh+0x150>
   801d0:	f9414694 	ldr	x20, [x20, #648]
   801d4:	f9401782 	ldr	x2, [x28, #40]
   801d8:	b9401281 	ldr	w1, [x20, #16]
   801dc:	11000421 	add	w1, w1, #0x1
   801e0:	b9001281 	str	w1, [x20, #16]
   801e4:	b4000042 	cbz	x2, 801ec <_ZN10graphics2d11create_viewER6Threadjjjjh+0xfc>
   801e8:	f9000840 	str	x0, [x2, #16]
   801ec:	9100a381 	add	x1, x28, #0x28
   801f0:	a900fc02 	stp	x2, xzr, [x0, #8]
   801f4:	f9400422 	ldr	x2, [x1, #8]
   801f8:	f9001780 	str	x0, [x28, #40]
   801fc:	b40001e2 	cbz	x2, 80238 <_ZN10graphics2d11create_viewER6Threadjjjjh+0x148>
   80200:	b9401020 	ldr	w0, [x1, #16]
   80204:	11000400 	add	w0, w0, #0x1
   80208:	b9001020 	str	w0, [x1, #16]
   8020c:	94000a7d 	bl	82c00 <_ZN9scheduler6unlockEv>
   80210:	aa1303e0 	mov	x0, x19
   80214:	a94153f3 	ldp	x19, x20, [sp, #16]
   80218:	a9425bf5 	ldp	x21, x22, [sp, #32]
   8021c:	a94363f7 	ldp	x23, x24, [sp, #48]
   80220:	a9446bf9 	ldp	x25, x26, [sp, #64]
   80224:	a94573fb 	ldp	x27, x28, [sp, #80]
   80228:	a8c77bfd 	ldp	x29, x30, [sp], #112
   8022c:	d65f03c0 	ret
   80230:	d2800013 	mov	x19, #0x0                   	// #0
   80234:	17fffff6 	b	8020c <_ZN10graphics2d11create_viewER6Threadjjjjh+0x11c>
   80238:	f9000420 	str	x0, [x1, #8]
   8023c:	17fffff1 	b	80200 <_ZN10graphics2d11create_viewER6Threadjjjjh+0x110>
   80240:	f9000053 	str	x19, [x2]
   80244:	17ffffe3 	b	801d0 <_ZN10graphics2d11create_viewER6Threadjjjjh+0xe0>
   80248:	d503201f 	nop
   8024c:	d503201f 	nop

0000000000080250 <_ZN10graphics2d22update_background_areaENS_4RectE>:
   80250:	9000026b 	adrp	x11, cc000 <_ZN10graphics2d4font12_GLOBAL__N_110bufferDataE+0x20c78>
   80254:	aa0003f0 	mov	x16, x0
   80258:	2a0003ef 	mov	w15, w0
   8025c:	f9416972 	ldr	x18, [x11, #720]
   80260:	f9417967 	ldr	x7, [x11, #752]
   80264:	b9400240 	ldr	w0, [x18]
   80268:	340013e0 	cbz	w0, 804e4 <_ZN10graphics2d22update_background_areaENS_4RectE+0x294>
   8026c:	a9bc7bfd 	stp	x29, x30, [sp, #-64]!
   80270:	d360fe10 	lsr	x16, x16, #32
   80274:	2a0103ea 	mov	w10, w1
   80278:	910003fd 	mov	x29, sp
   8027c:	f941456d 	ldr	x13, [x11, #648]
   80280:	d360fc2e 	lsr	x14, x1, #32
   80284:	f941a56c 	ldr	x12, [x11, #840]
   80288:	910020e7 	add	x7, x7, #0x8
   8028c:	f941dd6b 	ldr	x11, [x11, #952]
   80290:	52911129 	mov	w9, #0x8889                	// #34953
   80294:	72b11109 	movk	w9, #0x8888, lsl #16
   80298:	52800011 	mov	w17, #0x0                   	// #0
   8029c:	a90153f3 	stp	x19, x20, [sp, #16]
   802a0:	a9025bf5 	stp	x21, x22, [sp, #32]
   802a4:	f9001bf7 	str	x23, [sp, #48]
   802a8:	294180e1 	ldp	w1, w0, [x7, #12]
   802ac:	710001ff 	cmp	w15, #0x0
   802b0:	1a9fa1ef 	csel	w15, w15, wzr, ge  // ge = tcont
   802b4:	7100021f 	cmp	w16, #0x0
   802b8:	1a9fa210 	csel	w16, w16, wzr, ge  // ge = tcont
   802bc:	6b01015f 	cmp	w10, w1
   802c0:	1a81d14a 	csel	w10, w10, w1, le
   802c4:	6b0001df 	cmp	w14, w0
   802c8:	1a80d1ce 	csel	w14, w14, w0, le
   802cc:	2a1003e4 	mov	w4, w16
   802d0:	6b0e021f 	cmp	w16, w14
   802d4:	5400066a 	b.ge	803a0 <_ZN10graphics2d22update_background_areaENS_4RectE+0x150>  // b.tcont
   802d8:	9b297c88 	smull	x8, w4, w9
   802dc:	2a0f03e5 	mov	w5, w15
   802e0:	d360fd08 	lsr	x8, x8, #32
   802e4:	0b080088 	add	w8, w4, w8
   802e8:	13047d08 	asr	w8, w8, #4
   802ec:	4b847d08 	sub	w8, w8, w4, asr #31
   802f0:	6b0a00bf 	cmp	w5, w10
   802f4:	5400050a 	b.ge	80394 <_ZN10graphics2d22update_background_areaENS_4RectE+0x144>  // b.tcont
   802f8:	f94001a0 	ldr	x0, [x13]
   802fc:	b4000ee0 	cbz	x0, 804d8 <_ZN10graphics2d22update_background_areaENS_4RectE+0x288>
   80300:	2a0503fe 	mov	w30, w5
   80304:	2a0a03e6 	mov	w6, w10
   80308:	14000009 	b	8032c <_ZN10graphics2d22update_background_areaENS_4RectE+0xdc>
   8030c:	b9403c03 	ldr	w3, [x0, #60]
   80310:	1b030821 	madd	w1, w1, w3, w2
   80314:	6b0100bf 	cmp	w5, w1
   80318:	1a81a0a5 	csel	w5, w5, w1, ge  // ge = tcont
   8031c:	6b0600bf 	cmp	w5, w6
   80320:	5400034a 	b.ge	80388 <_ZN10graphics2d22update_background_areaENS_4RectE+0x138>  // b.tcont
   80324:	f9400000 	ldr	x0, [x0]
   80328:	b40002c0 	cbz	x0, 80380 <_ZN10graphics2d22update_background_areaENS_4RectE+0x130>
   8032c:	b9401c03 	ldr	w3, [x0, #28]
   80330:	6b04007f 	cmp	w3, w4
   80334:	54ffff8c 	b.gt	80324 <_ZN10graphics2d22update_background_areaENS_4RectE+0xd4>
   80338:	39408001 	ldrb	w1, [x0, #32]
   8033c:	b9404002 	ldr	w2, [x0, #64]
   80340:	1b020c22 	madd	w2, w1, w2, w3
   80344:	6b04005f 	cmp	w2, w4
   80348:	54fffeed 	b.le	80324 <_ZN10graphics2d22update_background_areaENS_4RectE+0xd4>
   8034c:	b9401802 	ldr	w2, [x0, #24]
   80350:	6b05005f 	cmp	w2, w5
   80354:	54fffdcd 	b.le	8030c <_ZN10graphics2d22update_background_areaENS_4RectE+0xbc>
   80358:	6b06005f 	cmp	w2, w6
   8035c:	54fffe4a 	b.ge	80324 <_ZN10graphics2d22update_background_areaENS_4RectE+0xd4>  // b.tcont
   80360:	b9403c03 	ldr	w3, [x0, #60]
   80364:	2a0203e6 	mov	w6, w2
   80368:	f9400000 	ldr	x0, [x0]
   8036c:	1b030821 	madd	w1, w1, w3, w2
   80370:	6b0103df 	cmp	w30, w1
   80374:	1a81a3de 	csel	w30, w30, w1, ge  // ge = tcont
   80378:	b5fffda0 	cbnz	x0, 8032c <_ZN10graphics2d22update_background_areaENS_4RectE+0xdc>
   8037c:	d503201f 	nop
   80380:	6b0600bf 	cmp	w5, w6
   80384:	5400022b 	b.lt	803c8 <_ZN10graphics2d22update_background_areaENS_4RectE+0x178>  // b.tstop
   80388:	2a1e03e5 	mov	w5, w30
   8038c:	6b0500df 	cmp	w6, w5
   80390:	54fffb0b 	b.lt	802f0 <_ZN10graphics2d22update_background_areaENS_4RectE+0xa0>  // b.tstop
   80394:	11000484 	add	w4, w4, #0x1
   80398:	6b0401df 	cmp	w14, w4
   8039c:	54fff9e1 	b.ne	802d8 <_ZN10graphics2d22update_background_areaENS_4RectE+0x88>  // b.any
   803a0:	b9400240 	ldr	w0, [x18]
   803a4:	11000631 	add	w17, w17, #0x1
   803a8:	9100c0e7 	add	x7, x7, #0x30
   803ac:	6b11001f 	cmp	w0, w17
   803b0:	54fff7c8 	b.hi	802a8 <_ZN10graphics2d22update_background_areaENS_4RectE+0x58>  // b.pmore
   803b4:	a94153f3 	ldp	x19, x20, [sp, #16]
   803b8:	a9425bf5 	ldp	x21, x22, [sp, #32]
   803bc:	f9401bf7 	ldr	x23, [sp, #48]
   803c0:	a8c47bfd 	ldp	x29, x30, [sp], #64
   803c4:	d65f03c0 	ret
   803c8:	2a0503e1 	mov	w1, w5
   803cc:	2a1e03e5 	mov	w5, w30
   803d0:	1400000b 	b	803fc <_ZN10graphics2d22update_background_areaENS_4RectE+0x1ac>
   803d4:	b94014e0 	ldr	w0, [x7, #20]
   803d8:	b9400162 	ldr	w2, [x11]
   803dc:	7100041f 	cmp	w0, #0x1
   803e0:	54000240 	b.eq	80428 <_ZN10graphics2d22update_background_areaENS_4RectE+0x1d8>  // b.none
   803e4:	7100081f 	cmp	w0, #0x2
   803e8:	54000540 	b.eq	80490 <_ZN10graphics2d22update_background_areaENS_4RectE+0x240>  // b.none
   803ec:	340003a0 	cbz	w0, 80460 <_ZN10graphics2d22update_background_areaENS_4RectE+0x210>
   803f0:	11000421 	add	w1, w1, #0x1
   803f4:	6b0100df 	cmp	w6, w1
   803f8:	54fffcad 	b.le	8038c <_ZN10graphics2d22update_background_areaENS_4RectE+0x13c>
   803fc:	9b297c20 	smull	x0, w1, w9
   80400:	d360fc00 	lsr	x0, x0, #32
   80404:	0b000020 	add	w0, w1, w0
   80408:	13047c00 	asr	w0, w0, #4
   8040c:	4b817c00 	sub	w0, w0, w1, asr #31
   80410:	0b080000 	add	w0, w0, w8
   80414:	3707fe00 	tbnz	w0, #0, 803d4 <_ZN10graphics2d22update_background_areaENS_4RectE+0x184>
   80418:	b94014e0 	ldr	w0, [x7, #20]
   8041c:	b9400182 	ldr	w2, [x12]
   80420:	7100041f 	cmp	w0, #0x1
   80424:	54fffe01 	b.ne	803e4 <_ZN10graphics2d22update_background_areaENS_4RectE+0x194>  // b.any
   80428:	b9400ce0 	ldr	w0, [x7, #12]
   8042c:	53087c55 	lsr	w21, w2, #8
   80430:	f94000f6 	ldr	x22, [x7]
   80434:	53107c53 	lsr	w19, w2, #16
   80438:	1b000480 	madd	w0, w4, w0, w1
   8043c:	0b000400 	add	w0, w0, w0, lsl #1
   80440:	11000414 	add	w20, w0, #0x1
   80444:	11000803 	add	w3, w0, #0x2
   80448:	38204ac2 	strb	w2, [x22, w0, uxtw]
   8044c:	f94000e0 	ldr	x0, [x7]
   80450:	38344815 	strb	w21, [x0, w20, uxtw]
   80454:	f94000e0 	ldr	x0, [x7]
   80458:	38234813 	strb	w19, [x0, w3, uxtw]
   8045c:	17ffffe5 	b	803f0 <_ZN10graphics2d22update_background_areaENS_4RectE+0x1a0>
   80460:	b9400ce0 	ldr	w0, [x7, #12]
   80464:	53137c43 	lsr	w3, w2, #19
   80468:	f94000f3 	ldr	x19, [x7]
   8046c:	530a7c5e 	lsr	w30, w2, #10
   80470:	d3431c42 	ubfx	x2, x2, #3, #5
   80474:	1b000480 	madd	w0, w4, w0, w1
   80478:	2a032c42 	orr	w2, w2, w3, lsl #11
   8047c:	531b17c3 	ubfiz	w3, w30, #5, #6
   80480:	0b000000 	add	w0, w0, w0
   80484:	2a030042 	orr	w2, w2, w3
   80488:	78204a62 	strh	w2, [x19, w0, uxtw]
   8048c:	17ffffd9 	b	803f0 <_ZN10graphics2d22update_background_areaENS_4RectE+0x1a0>
   80490:	b9400ce0 	ldr	w0, [x7, #12]
   80494:	53087c56 	lsr	w22, w2, #8
   80498:	f94000f7 	ldr	x23, [x7]
   8049c:	53107c54 	lsr	w20, w2, #16
   804a0:	53187c5e 	lsr	w30, w2, #24
   804a4:	1b000480 	madd	w0, w4, w0, w1
   804a8:	531e7400 	lsl	w0, w0, #2
   804ac:	11000415 	add	w21, w0, #0x1
   804b0:	11000813 	add	w19, w0, #0x2
   804b4:	11000c03 	add	w3, w0, #0x3
   804b8:	38204ae2 	strb	w2, [x23, w0, uxtw]
   804bc:	f94000e0 	ldr	x0, [x7]
   804c0:	38354816 	strb	w22, [x0, w21, uxtw]
   804c4:	f94000e0 	ldr	x0, [x7]
   804c8:	38334814 	strb	w20, [x0, w19, uxtw]
   804cc:	f94000e0 	ldr	x0, [x7]
   804d0:	3823481e 	strb	w30, [x0, w3, uxtw]
   804d4:	17ffffc7 	b	803f0 <_ZN10graphics2d22update_background_areaENS_4RectE+0x1a0>
   804d8:	2a0a03e6 	mov	w6, w10
   804dc:	2a0503e1 	mov	w1, w5
   804e0:	17ffffc7 	b	803fc <_ZN10graphics2d22update_background_areaENS_4RectE+0x1ac>
   804e4:	d65f03c0 	ret
   804e8:	d503201f 	nop
   804ec:	d503201f 	nop

00000000000804f0 <_ZN10graphics2d17update_backgroundEv>:
   804f0:	90000261 	adrp	x1, cc000 <_ZN10graphics2d4font12_GLOBAL__N_110bufferDataE+0x20c78>
   804f4:	d2800000 	mov	x0, #0x0                   	// #0
   804f8:	f9417821 	ldr	x1, [x1, #752]
   804fc:	f8414021 	ldur	x1, [x1, #20]
   80500:	17ffff54 	b	80250 <_ZN10graphics2d22update_background_areaENS_4RectE>
   80504:	d503201f 	nop
   80508:	d503201f 	nop
   8050c:	d503201f 	nop

0000000000080510 <_ZN10graphics2d4initEv>:
   80510:	17fffff8 	b	804f0 <_ZN10graphics2d17update_backgroundEv>
   80514:	d503201f 	nop
   80518:	d503201f 	nop
   8051c:	d503201f 	nop

0000000000080520 <_ZN10graphics2d21set_background_colourEj>:
   80520:	90000261 	adrp	x1, cc000 <_ZN10graphics2d4font12_GLOBAL__N_110bufferDataE+0x20c78>
   80524:	f941dc21 	ldr	x1, [x1, #952]
   80528:	b9400022 	ldr	w2, [x1]
   8052c:	6b00005f 	cmp	w2, w0
   80530:	54000060 	b.eq	8053c <_ZN10graphics2d21set_background_colourEj+0x1c>  // b.none
   80534:	b9000020 	str	w0, [x1]
   80538:	17ffffee 	b	804f0 <_ZN10graphics2d17update_backgroundEv>
   8053c:	d65f03c0 	ret

0000000000080540 <_ZN10graphics2d6Buffer9draw_textERNS_4FontEPKciijj>:
   80540:	d10203ff 	sub	sp, sp, #0x80
   80544:	a9027bfd 	stp	x29, x30, [sp, #32]
   80548:	910083fd 	add	x29, sp, #0x20
   8054c:	a9066bf9 	stp	x25, x26, [sp, #96]
   80550:	aa0103f9 	mov	x25, x1
   80554:	b9402021 	ldr	w1, [x1, #32]
   80558:	a90773fb 	stp	x27, x28, [sp, #112]
   8055c:	53185cbb 	lsl	w27, w5, #8
   80560:	39400049 	ldrb	w9, [x2]
   80564:	1ac10b7b 	udiv	w27, w27, w1
   80568:	340003e9 	cbz	w9, 805e4 <_ZN10graphics2d6Buffer9draw_textERNS_4FontEPKciijj+0xa4>
   8056c:	aa0203fa 	mov	x26, x2
   80570:	2a0303fc 	mov	w28, w3
   80574:	a9045bf5 	stp	x21, x22, [sp, #64]
   80578:	2a0403f5 	mov	w21, w4
   8057c:	2a0603f6 	mov	w22, w6
   80580:	a90563f7 	stp	x23, x24, [sp, #80]
   80584:	2a0503f7 	mov	w23, w5
   80588:	aa0003f8 	mov	x24, x0
   8058c:	a90353f3 	stp	x19, x20, [sp, #48]
   80590:	52800394 	mov	w20, #0x1c                  	// #28
   80594:	d503201f 	nop
   80598:	b9403b28 	ldr	w8, [x25, #56]
   8059c:	340001a8 	cbz	w8, 805d0 <_ZN10graphics2d6Buffer9draw_textERNS_4FontEPKciijj+0x90>
   805a0:	f9402333 	ldr	x19, [x25, #64]
   805a4:	51000508 	sub	w8, w8, #0x1
   805a8:	91007260 	add	x0, x19, #0x1c
   805ac:	9bb40108 	umaddl	x8, w8, w20, x0
   805b0:	14000005 	b	805c4 <_ZN10graphics2d6Buffer9draw_textERNS_4FontEPKciijj+0x84>
   805b4:	54000220 	b.eq	805f8 <_ZN10graphics2d6Buffer9draw_textERNS_4FontEPKciijj+0xb8>  // b.none
   805b8:	91007273 	add	x19, x19, #0x1c
   805bc:	eb08027f 	cmp	x19, x8
   805c0:	54000080 	b.eq	805d0 <_ZN10graphics2d6Buffer9draw_textERNS_4FontEPKciijj+0x90>  // b.none
   805c4:	b9400267 	ldr	w7, [x19]
   805c8:	6b07013f 	cmp	w9, w7
   805cc:	54ffff42 	b.cs	805b4 <_ZN10graphics2d6Buffer9draw_textERNS_4FontEPKciijj+0x74>  // b.hs, b.nlast
   805d0:	38401f49 	ldrb	w9, [x26, #1]!
   805d4:	35fffe29 	cbnz	w9, 80598 <_ZN10graphics2d6Buffer9draw_textERNS_4FontEPKciijj+0x58>
   805d8:	a94353f3 	ldp	x19, x20, [sp, #48]
   805dc:	a9445bf5 	ldp	x21, x22, [sp, #64]
   805e0:	a94563f7 	ldp	x23, x24, [sp, #80]
   805e4:	a9427bfd 	ldp	x29, x30, [sp, #32]
   805e8:	a9466bf9 	ldp	x25, x26, [sp, #96]
   805ec:	a94773fb 	ldp	x27, x28, [sp, #112]
   805f0:	910203ff 	add	sp, sp, #0x80
   805f4:	d65f03c0 	ret
   805f8:	79c01262 	ldrsh	w2, [x19, #8]
   805fc:	aa1803e0 	mov	x0, x24
   80600:	79c00e61 	ldrsh	w1, [x19, #6]
   80604:	aa1903e5 	mov	x5, x25
   80608:	2942a66b 	ldp	w11, w9, [x19, #20]
   8060c:	1b177c42 	mul	w2, w2, w23
   80610:	1b177c21 	mul	w1, w1, w23
   80614:	29419e66 	ldp	w6, w7, [x19, #12]
   80618:	7100005f 	cmp	w2, #0x0
   8061c:	1103fc43 	add	w3, w2, #0xff
   80620:	1b097f64 	mul	w4, w27, w9
   80624:	1a82b062 	csel	w2, w3, w2, lt  // lt = tstop
   80628:	1103fc28 	add	w8, w1, #0xff
   8062c:	7100003f 	cmp	w1, #0x0
   80630:	1b0b7f63 	mul	w3, w27, w11
   80634:	1a81b101 	csel	w1, w8, w1, lt  // lt = tstop
   80638:	b90003eb 	str	w11, [sp]
   8063c:	b9000be9 	str	w9, [sp, #8]
   80640:	4b8222a2 	sub	w2, w21, w2, asr #8
   80644:	b90013f6 	str	w22, [sp, #16]
   80648:	0b812381 	add	w1, w28, w1, asr #8
   8064c:	53087c63 	lsr	w3, w3, #8
   80650:	53087c84 	lsr	w4, w4, #8
   80654:	9400188b 	bl	86880 <_ZN10graphics2d6Buffer9draw_msdfEiijjRS0_jjjjj>
   80658:	b9402321 	ldr	w1, [x25, #32]
   8065c:	79c00a60 	ldrsh	w0, [x19, #4]
   80660:	38401f49 	ldrb	w9, [x26, #1]!
   80664:	1b017c00 	mul	w0, w0, w1
   80668:	529fffe1 	mov	w1, #0xffff                	// #65535
   8066c:	1b1b7c00 	mul	w0, w0, w27
   80670:	7100001f 	cmp	w0, #0x0
   80674:	0b010001 	add	w1, w0, w1
   80678:	1a80b020 	csel	w0, w1, w0, lt  // lt = tstop
   8067c:	0b80439c 	add	w28, w28, w0, asr #16
   80680:	35fff8c9 	cbnz	w9, 80598 <_ZN10graphics2d6Buffer9draw_textERNS_4FontEPKciijj+0x58>
   80684:	17ffffd5 	b	805d8 <_ZN10graphics2d6Buffer9draw_textERNS_4FontEPKciijj+0x98>
   80688:	d503201f 	nop
   8068c:	d503201f 	nop

0000000000080690 <_ZN10graphics2d16update_view_areaERNS_4ViewENS_4RectE>:
   80690:	39408003 	ldrb	w3, [x0, #32]
   80694:	71000c7f 	cmp	w3, #0x3
   80698:	54000140 	b.eq	806c0 <_ZN10graphics2d16update_view_areaERNS_4ViewENS_4RectE+0x30>  // b.none
   8069c:	540000c8 	b.hi	806b4 <_ZN10graphics2d16update_view_areaERNS_4ViewENS_4RectE+0x24>  // b.pmore
   806a0:	7100047f 	cmp	w3, #0x1
   806a4:	54000120 	b.eq	806c8 <_ZN10graphics2d16update_view_areaERNS_4ViewENS_4RectE+0x38>  // b.none
   806a8:	7100087f 	cmp	w3, #0x2
   806ac:	540000c1 	b.ne	806c4 <_ZN10graphics2d16update_view_areaERNS_4ViewENS_4RectE+0x34>  // b.any
   806b0:	14001b74 	b	87480 <_ZN10graphics2d17_update_view_areaILj2EEEvRNS_4ViewENS_4RectE>
   806b4:	7100107f 	cmp	w3, #0x4
   806b8:	54000061 	b.ne	806c4 <_ZN10graphics2d16update_view_areaERNS_4ViewENS_4RectE+0x34>  // b.any
   806bc:	14001c8d 	b	878f0 <_ZN10graphics2d17_update_view_areaILj4EEEvRNS_4ViewENS_4RectE>
   806c0:	14001bfc 	b	876b0 <_ZN10graphics2d17_update_view_areaILj3EEEvRNS_4ViewENS_4RectE>
   806c4:	d65f03c0 	ret
   806c8:	14001ae2 	b	87250 <_ZN10graphics2d17_update_view_areaILj1EEEvRNS_4ViewENS_4RectE>
   806cc:	d503201f 	nop

00000000000806d0 <_ZN10graphics2d11update_areaENS_4RectEPNS_4ViewE>:
   806d0:	a9bb7bfd 	stp	x29, x30, [sp, #-80]!
   806d4:	910003fd 	mov	x29, sp
   806d8:	a90153f3 	stp	x19, x20, [sp, #16]
   806dc:	aa0103f4 	mov	x20, x1
   806e0:	a9025bf5 	stp	x21, x22, [sp, #32]
   806e4:	aa0003f5 	mov	x21, x0
   806e8:	aa0203f6 	mov	x22, x2
   806ec:	97fffed9 	bl	80250 <_ZN10graphics2d22update_background_areaENS_4RectE>
   806f0:	90000260 	adrp	x0, cc000 <_ZN10graphics2d4font12_GLOBAL__N_110bufferDataE+0x20c78>
   806f4:	f9414400 	ldr	x0, [x0, #648]
   806f8:	f9400013 	ldr	x19, [x0]
   806fc:	f100027f 	cmp	x19, #0x0
   80700:	fa561264 	ccmp	x19, x22, #0x4, ne  // ne = any
   80704:	54000340 	b.eq	8076c <_ZN10graphics2d11update_areaENS_4RectEPNS_4ViewE+0x9c>  // b.none
   80708:	a90363f7 	stp	x23, x24, [sp, #48]
   8070c:	2a1503f8 	mov	w24, w21
   80710:	2a1403f7 	mov	w23, w20
   80714:	d360feb5 	lsr	x21, x21, #32
   80718:	d360fe94 	lsr	x20, x20, #32
   8071c:	a9046bf9 	stp	x25, x26, [sp, #64]
   80720:	aa1303e0 	mov	x0, x19
   80724:	29430663 	ldp	w3, w1, [x19, #24]
   80728:	4b030304 	sub	w4, w24, w3
   8072c:	4b0302e3 	sub	w3, w23, w3
   80730:	4b0102a2 	sub	w2, w21, w1
   80734:	4b010281 	sub	w1, w20, w1
   80738:	b3407c99 	bfxil	x25, x4, #0, #32
   8073c:	b3407c7a 	bfxil	x26, x3, #0, #32
   80740:	b3607c59 	bfi	x25, x2, #32, #32
   80744:	b3607c3a 	bfi	x26, x1, #32, #32
   80748:	aa1a03e2 	mov	x2, x26
   8074c:	aa1903e1 	mov	x1, x25
   80750:	97ffffd0 	bl	80690 <_ZN10graphics2d16update_view_areaERNS_4ViewENS_4RectE>
   80754:	f9400273 	ldr	x19, [x19]
   80758:	f100027f 	cmp	x19, #0x0
   8075c:	fa5312c4 	ccmp	x22, x19, #0x4, ne  // ne = any
   80760:	54fffe01 	b.ne	80720 <_ZN10graphics2d11update_areaENS_4RectEPNS_4ViewE+0x50>  // b.any
   80764:	a94363f7 	ldp	x23, x24, [sp, #48]
   80768:	a9446bf9 	ldp	x25, x26, [sp, #64]
   8076c:	a94153f3 	ldp	x19, x20, [sp, #16]
   80770:	a9425bf5 	ldp	x21, x22, [sp, #32]
   80774:	a8c57bfd 	ldp	x29, x30, [sp], #80
   80778:	d65f03c0 	ret
   8077c:	d503201f 	nop

0000000000080780 <_ZN10graphics2d4ViewD1Ev>:
   80780:	a9bd7bfd 	stp	x29, x30, [sp, #-48]!
   80784:	910003fd 	mov	x29, sp
   80788:	a90153f3 	stp	x19, x20, [sp, #16]
   8078c:	90000274 	adrp	x20, cc000 <_ZN10graphics2d4font12_GLOBAL__N_110bufferDataE+0x20c78>
   80790:	aa0003f3 	mov	x19, x0
   80794:	f9414680 	ldr	x0, [x20, #648]
   80798:	f9400001 	ldr	x1, [x0]
   8079c:	b4000101 	cbz	x1, 807bc <_ZN10graphics2d4ViewD1Ev+0x3c>
   807a0:	eb01027f 	cmp	x19, x1
   807a4:	54000061 	b.ne	807b0 <_ZN10graphics2d4ViewD1Ev+0x30>  // b.any
   807a8:	14000008 	b	807c8 <_ZN10graphics2d4ViewD1Ev+0x48>
   807ac:	540000e0 	b.eq	807c8 <_ZN10graphics2d4ViewD1Ev+0x48>  // b.none
   807b0:	f9400021 	ldr	x1, [x1]
   807b4:	eb01027f 	cmp	x19, x1
   807b8:	b5ffffa1 	cbnz	x1, 807ac <_ZN10graphics2d4ViewD1Ev+0x2c>
   807bc:	a94153f3 	ldp	x19, x20, [sp, #16]
   807c0:	a8c37bfd 	ldp	x29, x30, [sp], #48
   807c4:	d65f03c0 	ret
   807c8:	a9025bf5 	stp	x21, x22, [sp, #32]
   807cc:	91014264 	add	x4, x19, #0x50
   807d0:	d2800015 	mov	x21, #0x0                   	// #0
   807d4:	29430a63 	ldp	w3, w2, [x19, #24]
   807d8:	d2800016 	mov	x22, #0x0                   	// #0
   807dc:	39408260 	ldrb	w0, [x19, #32]
   807e0:	29479a61 	ldp	w1, w6, [x19, #60]
   807e4:	b3407c75 	bfxil	x21, x3, #0, #32
   807e8:	b3607c55 	bfi	x21, x2, #32, #32
   807ec:	1b010c01 	madd	w1, w0, w1, w3
   807f0:	a9409483 	ldp	x3, x5, [x4, #8]
   807f4:	1b060800 	madd	w0, w0, w6, w2
   807f8:	b3407c36 	bfxil	x22, x1, #0, #32
   807fc:	f9400a62 	ldr	x2, [x19, #16]
   80800:	b3607c16 	bfi	x22, x0, #32, #32
   80804:	b4000385 	cbz	x5, 80874 <_ZN10graphics2d4ViewD1Ev+0xf4>
   80808:	f90004a3 	str	x3, [x5, #8]
   8080c:	f9400483 	ldr	x3, [x4, #8]
   80810:	b4000363 	cbz	x3, 8087c <_ZN10graphics2d4ViewD1Ev+0xfc>
   80814:	9100a042 	add	x2, x2, #0x28
   80818:	f9000865 	str	x5, [x3, #16]
   8081c:	b9401041 	ldr	w1, [x2, #16]
   80820:	f9401a60 	ldr	x0, [x19, #48]
   80824:	51000421 	sub	w1, w1, #0x1
   80828:	b9001041 	str	w1, [x2, #16]
   8082c:	b4000040 	cbz	x0, 80834 <_ZN10graphics2d4ViewD1Ev+0xb4>
   80830:	94000338 	bl	81510 <_ZN6memory5kfreeEPv>
   80834:	a9400261 	ldp	x1, x0, [x19]
   80838:	b40002c0 	cbz	x0, 80890 <_ZN10graphics2d4ViewD1Ev+0x110>
   8083c:	f9000001 	str	x1, [x0]
   80840:	b4000241 	cbz	x1, 80888 <_ZN10graphics2d4ViewD1Ev+0x108>
   80844:	f9414694 	ldr	x20, [x20, #648]
   80848:	d2800002 	mov	x2, #0x0                   	// #0
   8084c:	b9401283 	ldr	w3, [x20, #16]
   80850:	f9000420 	str	x0, [x1, #8]
   80854:	aa1503e0 	mov	x0, x21
   80858:	51000463 	sub	w3, w3, #0x1
   8085c:	aa1603e1 	mov	x1, x22
   80860:	a9425bf5 	ldp	x21, x22, [sp, #32]
   80864:	b9001283 	str	w3, [x20, #16]
   80868:	a94153f3 	ldp	x19, x20, [sp, #16]
   8086c:	a8c37bfd 	ldp	x29, x30, [sp], #48
   80870:	17ffff98 	b	806d0 <_ZN10graphics2d11update_areaENS_4RectEPNS_4ViewE>
   80874:	f9001443 	str	x3, [x2, #40]
   80878:	b5fffce3 	cbnz	x3, 80814 <_ZN10graphics2d4ViewD1Ev+0x94>
   8087c:	9100a042 	add	x2, x2, #0x28
   80880:	f9000445 	str	x5, [x2, #8]
   80884:	17ffffe6 	b	8081c <_ZN10graphics2d4ViewD1Ev+0x9c>
   80888:	f9414681 	ldr	x1, [x20, #648]
   8088c:	17ffffee 	b	80844 <_ZN10graphics2d4ViewD1Ev+0xc4>
   80890:	f9414683 	ldr	x3, [x20, #648]
   80894:	f9000061 	str	x1, [x3]
   80898:	17ffffea 	b	80840 <_ZN10graphics2d4ViewD1Ev+0xc0>
   8089c:	d503201f 	nop

00000000000808a0 <_ZN10graphics2d4View21Handle_thread_deleted4callEPv>:
   808a0:	b4000161 	cbz	x1, 808cc <_ZN10graphics2d4View21Handle_thread_deleted4callEPv+0x2c>
   808a4:	a9be7bfd 	stp	x29, x30, [sp, #-32]!
   808a8:	aa0103e0 	mov	x0, x1
   808ac:	910003fd 	mov	x29, sp
   808b0:	f9000bf3 	str	x19, [sp, #16]
   808b4:	aa0103f3 	mov	x19, x1
   808b8:	97ffffb2 	bl	80780 <_ZN10graphics2d4ViewD1Ev>
   808bc:	aa1303e0 	mov	x0, x19
   808c0:	f9400bf3 	ldr	x19, [sp, #16]
   808c4:	a8c27bfd 	ldp	x29, x30, [sp], #32
   808c8:	14000312 	b	81510 <_ZN6memory5kfreeEPv>
   808cc:	d65f03c0 	ret

00000000000808d0 <_ZN10graphics2d12move_view_toERNS_4ViewEii>:
   808d0:	a9bd7bfd 	stp	x29, x30, [sp, #-48]!
   808d4:	2a0103e3 	mov	w3, w1
   808d8:	2a0203e5 	mov	w5, w2
   808dc:	910003fd 	mov	x29, sp
   808e0:	a90153f3 	stp	x19, x20, [sp, #16]
   808e4:	aa0003f3 	mov	x19, x0
   808e8:	b9401814 	ldr	w20, [x0, #24]
   808ec:	f90013f5 	str	x21, [sp, #32]
   808f0:	6b01029f 	cmp	w20, w1
   808f4:	b9401c15 	ldr	w21, [x0, #28]
   808f8:	54000061 	b.ne	80904 <_ZN10graphics2d12move_view_toERNS_4ViewEii+0x34>  // b.any
   808fc:	6b15005f 	cmp	w2, w21
   80900:	54000360 	b.eq	8096c <_ZN10graphics2d12move_view_toERNS_4ViewEii+0x9c>  // b.none
   80904:	29479e66 	ldp	w6, w7, [x19, #60]
   80908:	29031663 	stp	w3, w5, [x19, #24]
   8090c:	39408264 	ldrb	w4, [x19, #32]
   80910:	d2800002 	mov	x2, #0x0                   	// #0
   80914:	aa1303e0 	mov	x0, x19
   80918:	d2800001 	mov	x1, #0x0                   	// #0
   8091c:	1b067c85 	mul	w5, w4, w6
   80920:	1b077c84 	mul	w4, w4, w7
   80924:	b3407ca2 	bfxil	x2, x5, #0, #32
   80928:	b3607c82 	bfi	x2, x4, #32, #32
   8092c:	97ffff59 	bl	80690 <_ZN10graphics2d16update_view_areaERNS_4ViewENS_4RectE>
   80930:	39408263 	ldrb	w3, [x19, #32]
   80934:	d2800000 	mov	x0, #0x0                   	// #0
   80938:	29479664 	ldp	w4, w5, [x19, #60]
   8093c:	b3407e80 	bfxil	x0, x20, #0, #32
   80940:	d2800001 	mov	x1, #0x0                   	// #0
   80944:	aa1303e2 	mov	x2, x19
   80948:	b3607ea0 	bfi	x0, x21, #32, #32
   8094c:	1b045074 	madd	w20, w3, w4, w20
   80950:	1b055463 	madd	w3, w3, w5, w21
   80954:	f94013f5 	ldr	x21, [sp, #32]
   80958:	b3407e81 	bfxil	x1, x20, #0, #32
   8095c:	a94153f3 	ldp	x19, x20, [sp, #16]
   80960:	b3607c61 	bfi	x1, x3, #32, #32
   80964:	a8c37bfd 	ldp	x29, x30, [sp], #48
   80968:	17ffff5a 	b	806d0 <_ZN10graphics2d11update_areaENS_4RectEPNS_4ViewE>
   8096c:	a94153f3 	ldp	x19, x20, [sp, #16]
   80970:	f94013f5 	ldr	x21, [sp, #32]
   80974:	a8c37bfd 	ldp	x29, x30, [sp], #48
   80978:	d65f03c0 	ret
   8097c:	00000000 	.inst	0x00000000 ; undefined

0000000000080980 <__cxa_pure_virtual>:
   80980:	a9be7bfd 	stp	x29, x30, [sp, #-32]!
   80984:	90000261 	adrp	x1, cc000 <_ZN10graphics2d4font12_GLOBAL__N_110bufferDataE+0x20c78>
   80988:	910003fd 	mov	x29, sp
   8098c:	a90153f3 	stp	x19, x20, [sp, #16]
   80990:	f941f034 	ldr	x20, [x1, #992]
   80994:	b9400280 	ldr	w0, [x20]
   80998:	34000140 	cbz	w0, 809c0 <__cxa_pure_virtual+0x40>
   8099c:	52800013 	mov	w19, #0x0                   	// #0
   809a0:	52800400 	mov	w0, #0x20                  	// #32
   809a4:	940012e3 	bl	85530 <_ZN5stdio4putcEc>
   809a8:	52800400 	mov	w0, #0x20                  	// #32
   809ac:	940012e1 	bl	85530 <_ZN5stdio4putcEc>
   809b0:	b9400280 	ldr	w0, [x20]
   809b4:	11000673 	add	w19, w19, #0x1
   809b8:	6b13001f 	cmp	w0, w19
   809bc:	54ffff28 	b.hi	809a0 <__cxa_pure_virtual+0x20>  // b.pmore
   809c0:	a94153f3 	ldp	x19, x20, [sp, #16]
   809c4:	90000040 	adrp	x0, 88000 <__rodata_start>
   809c8:	91030000 	add	x0, x0, #0xc0
   809cc:	a8c27bfd 	ldp	x29, x30, [sp], #32
   809d0:	140012e4 	b	85560 <_ZN5stdio4putsEPKc>
   809d4:	d503201f 	nop
   809d8:	d503201f 	nop
   809dc:	d503201f 	nop

00000000000809e0 <__cxa_atexit>:
   809e0:	90000263 	adrp	x3, cc000 <_ZN10graphics2d4font12_GLOBAL__N_110bufferDataE+0x20c78>
   809e4:	aa0003e6 	mov	x6, x0
   809e8:	f941e867 	ldr	x7, [x3, #976]
   809ec:	b94000e4 	ldr	w4, [x7]
   809f0:	7101fc9f 	cmp	w4, #0x7f
   809f4:	54000188 	b.hi	80a24 <__cxa_atexit+0x44>  // b.pmore
   809f8:	2a0403e5 	mov	w5, w4
   809fc:	d2800300 	mov	x0, #0x18                  	// #24
   80a00:	f941b463 	ldr	x3, [x3, #872]
   80a04:	11000484 	add	w4, w4, #0x1
   80a08:	9b007ca5 	mul	x5, x5, x0
   80a0c:	b90000e4 	str	w4, [x7]
   80a10:	52800000 	mov	w0, #0x0                   	// #0
   80a14:	8b050064 	add	x4, x3, x5
   80a18:	f8256866 	str	x6, [x3, x5]
   80a1c:	a9008881 	stp	x1, x2, [x4, #8]
   80a20:	d65f03c0 	ret
   80a24:	12800000 	mov	w0, #0xffffffff            	// #-1
   80a28:	d65f03c0 	ret
   80a2c:	d503201f 	nop

0000000000080a30 <__cxa_finalize>:
   80a30:	a9bd7bfd 	stp	x29, x30, [sp, #-48]!
   80a34:	90000261 	adrp	x1, cc000 <_ZN10graphics2d4font12_GLOBAL__N_110bufferDataE+0x20c78>
   80a38:	910003fd 	mov	x29, sp
   80a3c:	a90153f3 	stp	x19, x20, [sp, #16]
   80a40:	aa0003f4 	mov	x20, x0
   80a44:	f941e820 	ldr	x0, [x1, #976]
   80a48:	b9400013 	ldr	w19, [x0]
   80a4c:	b4000394 	cbz	x20, 80abc <__cxa_finalize+0x8c>
   80a50:	37f80313 	tbnz	w19, #31, 80ab0 <__cxa_finalize+0x80>
   80a54:	f941b421 	ldr	x1, [x1, #872]
   80a58:	f90013f5 	str	x21, [sp, #32]
   80a5c:	93407e75 	sxtw	x21, w19
   80a60:	d2800302 	mov	x2, #0x18                  	// #24
   80a64:	cb3342b5 	sub	x21, x21, w19, uxtw
   80a68:	d1006020 	sub	x0, x1, #0x18
   80a6c:	52800303 	mov	w3, #0x18                  	// #24
   80a70:	9b0202b5 	madd	x21, x21, x2, x0
   80a74:	9b230673 	smaddl	x19, w19, w3, x1
   80a78:	14000004 	b	80a88 <__cxa_finalize+0x58>
   80a7c:	d1006273 	sub	x19, x19, #0x18
   80a80:	eb15027f 	cmp	x19, x21
   80a84:	54000140 	b.eq	80aac <__cxa_finalize+0x7c>  // b.none
   80a88:	f9400261 	ldr	x1, [x19]
   80a8c:	eb14003f 	cmp	x1, x20
   80a90:	54ffff61 	b.ne	80a7c <__cxa_finalize+0x4c>  // b.any
   80a94:	f9400660 	ldr	x0, [x19, #8]
   80a98:	d1006273 	sub	x19, x19, #0x18
   80a9c:	d63f0280 	blr	x20
   80aa0:	f9000e7f 	str	xzr, [x19, #24]
   80aa4:	eb15027f 	cmp	x19, x21
   80aa8:	54ffff01 	b.ne	80a88 <__cxa_finalize+0x58>  // b.any
   80aac:	f94013f5 	ldr	x21, [sp, #32]
   80ab0:	a94153f3 	ldp	x19, x20, [sp, #16]
   80ab4:	a8c37bfd 	ldp	x29, x30, [sp], #48
   80ab8:	d65f03c0 	ret
   80abc:	34ffffb3 	cbz	w19, 80ab0 <__cxa_finalize+0x80>
   80ac0:	f941b421 	ldr	x1, [x1, #872]
   80ac4:	51000660 	sub	w0, w19, #0x1
   80ac8:	93407e74 	sxtw	x20, w19
   80acc:	d2800303 	mov	x3, #0x18                  	// #24
   80ad0:	cb000294 	sub	x20, x20, x0
   80ad4:	d1006022 	sub	x2, x1, #0x18
   80ad8:	52800300 	mov	w0, #0x18                  	// #24
   80adc:	9b030a94 	madd	x20, x20, x3, x2
   80ae0:	9b200673 	smaddl	x19, w19, w0, x1
   80ae4:	d503201f 	nop
   80ae8:	f85e8261 	ldur	x1, [x19, #-24]
   80aec:	b4000061 	cbz	x1, 80af8 <__cxa_finalize+0xc8>
   80af0:	f85f0260 	ldur	x0, [x19, #-16]
   80af4:	d63f0020 	blr	x1
   80af8:	d1006273 	sub	x19, x19, #0x18
   80afc:	eb14027f 	cmp	x19, x20
   80b00:	54ffff41 	b.ne	80ae8 <__cxa_finalize+0xb8>  // b.any
   80b04:	a94153f3 	ldp	x19, x20, [sp, #16]
   80b08:	a8c37bfd 	ldp	x29, x30, [sp], #48
   80b0c:	d65f03c0 	ret

0000000000080b10 <_ZN6kernel4initEv>:
   80b10:	a9b97bfd 	stp	x29, x30, [sp, #-112]!
   80b14:	910003fd 	mov	x29, sp
   80b18:	a9025bf5 	stp	x21, x22, [sp, #32]
   80b1c:	90000275 	adrp	x21, cc000 <_ZN10graphics2d4font12_GLOBAL__N_110bufferDataE+0x20c78>
   80b20:	a90153f3 	stp	x19, x20, [sp, #16]
   80b24:	52800013 	mov	w19, #0x0                   	// #0
   80b28:	f941f2b4 	ldr	x20, [x21, #992]
   80b2c:	a9046bf9 	stp	x25, x26, [sp, #64]
   80b30:	b9400280 	ldr	w0, [x20]
   80b34:	34000120 	cbz	w0, 80b58 <_ZN6kernel4initEv+0x48>
   80b38:	52800400 	mov	w0, #0x20                  	// #32
   80b3c:	9400127d 	bl	85530 <_ZN5stdio4putcEc>
   80b40:	52800400 	mov	w0, #0x20                  	// #32
   80b44:	9400127b 	bl	85530 <_ZN5stdio4putcEc>
   80b48:	b9400281 	ldr	w1, [x20]
   80b4c:	11000673 	add	w19, w19, #0x1
   80b50:	6b13003f 	cmp	w1, w19
   80b54:	54ffff28 	b.hi	80b38 <_ZN6kernel4initEv+0x28>  // b.pmore
   80b58:	90000040 	adrp	x0, 88000 <__rodata_start>
   80b5c:	9103a000 	add	x0, x0, #0xe8
   80b60:	94001280 	bl	85560 <_ZN5stdio4putsEPKc>
   80b64:	f941f2b4 	ldr	x20, [x21, #992]
   80b68:	b9400280 	ldr	w0, [x20]
   80b6c:	11000400 	add	w0, w0, #0x1
   80b70:	b9000280 	str	w0, [x20]
   80b74:	97fffe67 	bl	80510 <_ZN10graphics2d4initEv>
   80b78:	f9415ea0 	ldr	x0, [x21, #696]
   80b7c:	52800022 	mov	w2, #0x1                   	// #1
   80b80:	b9400281 	ldr	w1, [x20]
   80b84:	39000002 	strb	w2, [x0]
   80b88:	34000141 	cbz	w1, 80bb0 <_ZN6kernel4initEv+0xa0>
   80b8c:	52800013 	mov	w19, #0x0                   	// #0
   80b90:	52800400 	mov	w0, #0x20                  	// #32
   80b94:	94001267 	bl	85530 <_ZN5stdio4putcEc>
   80b98:	52800400 	mov	w0, #0x20                  	// #32
   80b9c:	94001265 	bl	85530 <_ZN5stdio4putcEc>
   80ba0:	b9400281 	ldr	w1, [x20]
   80ba4:	11000673 	add	w19, w19, #0x1
   80ba8:	6b13003f 	cmp	w1, w19
   80bac:	54ffff28 	b.hi	80b90 <_ZN6kernel4initEv+0x80>  // b.pmore
   80bb0:	90000040 	adrp	x0, 88000 <__rodata_start>
   80bb4:	9103e000 	add	x0, x0, #0xf8
   80bb8:	9400126a 	bl	85560 <_ZN5stdio4putsEPKc>
   80bbc:	f941f2b4 	ldr	x20, [x21, #992]
   80bc0:	b9400280 	ldr	w0, [x20]
   80bc4:	11000400 	add	w0, w0, #0x1
   80bc8:	b9000280 	str	w0, [x20]
   80bcc:	34000160 	cbz	w0, 80bf8 <_ZN6kernel4initEv+0xe8>
   80bd0:	52800013 	mov	w19, #0x0                   	// #0
   80bd4:	d503201f 	nop
   80bd8:	52800400 	mov	w0, #0x20                  	// #32
   80bdc:	94001255 	bl	85530 <_ZN5stdio4putcEc>
   80be0:	52800400 	mov	w0, #0x20                  	// #32
   80be4:	94001253 	bl	85530 <_ZN5stdio4putcEc>
   80be8:	b9400281 	ldr	w1, [x20]
   80bec:	11000673 	add	w19, w19, #0x1
   80bf0:	6b13003f 	cmp	w1, w19
   80bf4:	54ffff28 	b.hi	80bd8 <_ZN6kernel4initEv+0xc8>  // b.pmore
   80bf8:	90000040 	adrp	x0, 88000 <__rodata_start>
   80bfc:	91042000 	add	x0, x0, #0x108
   80c00:	94001258 	bl	85560 <_ZN5stdio4putsEPKc>
   80c04:	90000040 	adrp	x0, 88000 <__rodata_start>
   80c08:	91046000 	add	x0, x0, #0x118
   80c0c:	94001255 	bl	85560 <_ZN5stdio4putsEPKc>
   80c10:	9000005a 	adrp	x26, 88000 <__rodata_start>
   80c14:	91138340 	add	x0, x26, #0x4e0
   80c18:	94001252 	bl	85560 <_ZN5stdio4putsEPKc>
   80c1c:	f941f2b4 	ldr	x20, [x21, #992]
   80c20:	b9400280 	ldr	w0, [x20]
   80c24:	34000160 	cbz	w0, 80c50 <_ZN6kernel4initEv+0x140>
   80c28:	52800013 	mov	w19, #0x0                   	// #0
   80c2c:	d503201f 	nop
   80c30:	52800400 	mov	w0, #0x20                  	// #32
   80c34:	9400123f 	bl	85530 <_ZN5stdio4putcEc>
   80c38:	52800400 	mov	w0, #0x20                  	// #32
   80c3c:	9400123d 	bl	85530 <_ZN5stdio4putcEc>
   80c40:	b9400281 	ldr	w1, [x20]
   80c44:	11000673 	add	w19, w19, #0x1
   80c48:	6b13003f 	cmp	w1, w19
   80c4c:	54ffff28 	b.hi	80c30 <_ZN6kernel4initEv+0x120>  // b.pmore
   80c50:	90000040 	adrp	x0, 88000 <__rodata_start>
   80c54:	91048000 	add	x0, x0, #0x120
   80c58:	94001242 	bl	85560 <_ZN5stdio4putsEPKc>
   80c5c:	90000040 	adrp	x0, 88000 <__rodata_start>
   80c60:	9104c000 	add	x0, x0, #0x130
   80c64:	9400123f 	bl	85560 <_ZN5stdio4putsEPKc>
   80c68:	91138340 	add	x0, x26, #0x4e0
   80c6c:	9400123d 	bl	85560 <_ZN5stdio4putsEPKc>
   80c70:	f941f2b4 	ldr	x20, [x21, #992]
   80c74:	b9400280 	ldr	w0, [x20]
   80c78:	34000140 	cbz	w0, 80ca0 <_ZN6kernel4initEv+0x190>
   80c7c:	52800013 	mov	w19, #0x0                   	// #0
   80c80:	52800400 	mov	w0, #0x20                  	// #32
   80c84:	9400122b 	bl	85530 <_ZN5stdio4putcEc>
   80c88:	52800400 	mov	w0, #0x20                  	// #32
   80c8c:	94001229 	bl	85530 <_ZN5stdio4putcEc>
   80c90:	b9400281 	ldr	w1, [x20]
   80c94:	11000673 	add	w19, w19, #0x1
   80c98:	6b13003f 	cmp	w1, w19
   80c9c:	54ffff28 	b.hi	80c80 <_ZN6kernel4initEv+0x170>  // b.pmore
   80ca0:	90000040 	adrp	x0, 88000 <__rodata_start>
   80ca4:	91050000 	add	x0, x0, #0x140
   80ca8:	9400122e 	bl	85560 <_ZN5stdio4putsEPKc>
   80cac:	90000040 	adrp	x0, 88000 <__rodata_start>
   80cb0:	91056000 	add	x0, x0, #0x158
   80cb4:	9400122b 	bl	85560 <_ZN5stdio4putsEPKc>
   80cb8:	91138340 	add	x0, x26, #0x4e0
   80cbc:	94001229 	bl	85560 <_ZN5stdio4putsEPKc>
   80cc0:	f94172a1 	ldr	x1, [x21, #736]
   80cc4:	f941f2b4 	ldr	x20, [x21, #992]
   80cc8:	f9400036 	ldr	x22, [x1]
   80ccc:	b9400280 	ldr	w0, [x20]
   80cd0:	d354fed6 	lsr	x22, x22, #20
   80cd4:	34000160 	cbz	w0, 80d00 <_ZN6kernel4initEv+0x1f0>
   80cd8:	52800013 	mov	w19, #0x0                   	// #0
   80cdc:	d503201f 	nop
   80ce0:	52800400 	mov	w0, #0x20                  	// #32
   80ce4:	94001213 	bl	85530 <_ZN5stdio4putcEc>
   80ce8:	52800400 	mov	w0, #0x20                  	// #32
   80cec:	94001211 	bl	85530 <_ZN5stdio4putcEc>
   80cf0:	b9400281 	ldr	w1, [x20]
   80cf4:	11000673 	add	w19, w19, #0x1
   80cf8:	6b13003f 	cmp	w1, w19
   80cfc:	54ffff28 	b.hi	80ce0 <_ZN6kernel4initEv+0x1d0>  // b.pmore
   80d00:	90000040 	adrp	x0, 88000 <__rodata_start>
   80d04:	91058000 	add	x0, x0, #0x160
   80d08:	94001216 	bl	85560 <_ZN5stdio4putsEPKc>
   80d0c:	aa1603e0 	mov	x0, x22
   80d10:	940015c8 	bl	86430 <_Z9to_stringm>
   80d14:	94001213 	bl	85560 <_ZN5stdio4putsEPKc>
   80d18:	90000040 	adrp	x0, 88000 <__rodata_start>
   80d1c:	9105c000 	add	x0, x0, #0x170
   80d20:	94001210 	bl	85560 <_ZN5stdio4putsEPKc>
   80d24:	f941f2b4 	ldr	x20, [x21, #992]
   80d28:	b9400280 	ldr	w0, [x20]
   80d2c:	34000160 	cbz	w0, 80d58 <_ZN6kernel4initEv+0x248>
   80d30:	52800013 	mov	w19, #0x0                   	// #0
   80d34:	d503201f 	nop
   80d38:	52800400 	mov	w0, #0x20                  	// #32
   80d3c:	940011fd 	bl	85530 <_ZN5stdio4putcEc>
   80d40:	52800400 	mov	w0, #0x20                  	// #32
   80d44:	940011fb 	bl	85530 <_ZN5stdio4putcEc>
   80d48:	b9400281 	ldr	w1, [x20]
   80d4c:	11000673 	add	w19, w19, #0x1
   80d50:	6b13003f 	cmp	w1, w19
   80d54:	54ffff28 	b.hi	80d38 <_ZN6kernel4initEv+0x228>  // b.pmore
   80d58:	90000040 	adrp	x0, 88000 <__rodata_start>
   80d5c:	9105e000 	add	x0, x0, #0x178
   80d60:	94001200 	bl	85560 <_ZN5stdio4putsEPKc>
   80d64:	f9416aa0 	ldr	x0, [x21, #720]
   80d68:	f941f2b3 	ldr	x19, [x21, #992]
   80d6c:	b9400002 	ldr	w2, [x0]
   80d70:	b9400261 	ldr	w1, [x19]
   80d74:	11000420 	add	w0, w1, #0x1
   80d78:	b9000260 	str	w0, [x19]
   80d7c:	340006e2 	cbz	w2, 80e58 <_ZN6kernel4initEv+0x348>
   80d80:	f9417ab4 	ldr	x20, [x21, #752]
   80d84:	90000261 	adrp	x1, cc000 <_ZN10graphics2d4font12_GLOBAL__N_110bufferDataE+0x20c78>
   80d88:	52800016 	mov	w22, #0x0                   	// #0
   80d8c:	a90363f7 	stp	x23, x24, [sp, #48]
   80d90:	91005294 	add	x20, x20, #0x14
   80d94:	a90573fb 	stp	x27, x28, [sp, #80]
   80d98:	9000005b 	adrp	x27, 88000 <__rodata_start>
   80d9c:	f90037e1 	str	x1, [sp, #104]
   80da0:	29406698 	ldp	w24, w25, [x20]
   80da4:	5280001c 	mov	w28, #0x0                   	// #0
   80da8:	b9400a97 	ldr	w23, [x20, #8]
   80dac:	34000120 	cbz	w0, 80dd0 <_ZN6kernel4initEv+0x2c0>
   80db0:	52800400 	mov	w0, #0x20                  	// #32
   80db4:	940011df 	bl	85530 <_ZN5stdio4putcEc>
   80db8:	52800400 	mov	w0, #0x20                  	// #32
   80dbc:	940011dd 	bl	85530 <_ZN5stdio4putcEc>
   80dc0:	b9400262 	ldr	w2, [x19]
   80dc4:	1100079c 	add	w28, w28, #0x1
   80dc8:	6b1c005f 	cmp	w2, w28
   80dcc:	54ffff28 	b.hi	80db0 <_ZN6kernel4initEv+0x2a0>  // b.pmore
   80dd0:	2a1803e0 	mov	w0, w24
   80dd4:	94001567 	bl	86370 <_Z9to_stringj>
   80dd8:	940011e2 	bl	85560 <_ZN5stdio4putsEPKc>
   80ddc:	52800f00 	mov	w0, #0x78                  	// #120
   80de0:	940011d4 	bl	85530 <_ZN5stdio4putcEc>
   80de4:	2a1903e0 	mov	w0, w25
   80de8:	94001562 	bl	86370 <_Z9to_stringj>
   80dec:	940011dd 	bl	85560 <_ZN5stdio4putsEPKc>
   80df0:	91062360 	add	x0, x27, #0x188
   80df4:	940011db 	bl	85560 <_ZN5stdio4putsEPKc>
   80df8:	71000aff 	cmp	w23, #0x2
   80dfc:	54000208 	b.hi	80e3c <_ZN6kernel4initEv+0x32c>  // b.pmore
   80e00:	f94037e0 	ldr	x0, [sp, #104]
   80e04:	9112e000 	add	x0, x0, #0x4b8
   80e08:	f8775800 	ldr	x0, [x0, w23, uxtw #3]
   80e0c:	940011d5 	bl	85560 <_ZN5stdio4putsEPKc>
   80e10:	91138340 	add	x0, x26, #0x4e0
   80e14:	940011d3 	bl	85560 <_ZN5stdio4putsEPKc>
   80e18:	f9416aa1 	ldr	x1, [x21, #720]
   80e1c:	110006d6 	add	w22, w22, #0x1
   80e20:	9100c294 	add	x20, x20, #0x30
   80e24:	b9400020 	ldr	w0, [x1]
   80e28:	6b16001f 	cmp	w0, w22
   80e2c:	f941f2a0 	ldr	x0, [x21, #992]
   80e30:	540000c9 	b.ls	80e48 <_ZN6kernel4initEv+0x338>  // b.plast
   80e34:	b9400000 	ldr	w0, [x0]
   80e38:	17ffffda 	b	80da0 <_ZN6kernel4initEv+0x290>
   80e3c:	2a1703e0 	mov	w0, w23
   80e40:	9400154c 	bl	86370 <_Z9to_stringj>
   80e44:	17fffff2 	b	80e0c <_ZN6kernel4initEv+0x2fc>
   80e48:	a94363f7 	ldp	x23, x24, [sp, #48]
   80e4c:	a94573fb 	ldp	x27, x28, [sp, #80]
   80e50:	b9400001 	ldr	w1, [x0]
   80e54:	51000421 	sub	w1, w1, #0x1
   80e58:	f941f2b4 	ldr	x20, [x21, #992]
   80e5c:	52800013 	mov	w19, #0x0                   	// #0
   80e60:	b9000281 	str	w1, [x20]
   80e64:	34000121 	cbz	w1, 80e88 <_ZN6kernel4initEv+0x378>
   80e68:	52800400 	mov	w0, #0x20                  	// #32
   80e6c:	940011b1 	bl	85530 <_ZN5stdio4putcEc>
   80e70:	52800400 	mov	w0, #0x20                  	// #32
   80e74:	940011af 	bl	85530 <_ZN5stdio4putcEc>
   80e78:	b9400281 	ldr	w1, [x20]
   80e7c:	11000673 	add	w19, w19, #0x1
   80e80:	6b13003f 	cmp	w1, w19
   80e84:	54ffff28 	b.hi	80e68 <_ZN6kernel4initEv+0x358>  // b.pmore
   80e88:	90000056 	adrp	x22, 88000 <__rodata_start>
   80e8c:	910642c0 	add	x0, x22, #0x190
   80e90:	940011b4 	bl	85560 <_ZN5stdio4putsEPKc>
   80e94:	f941f2b4 	ldr	x20, [x21, #992]
   80e98:	b9400280 	ldr	w0, [x20]
   80e9c:	51000400 	sub	w0, w0, #0x1
   80ea0:	b9000280 	str	w0, [x20]
   80ea4:	34000160 	cbz	w0, 80ed0 <_ZN6kernel4initEv+0x3c0>
   80ea8:	52800013 	mov	w19, #0x0                   	// #0
   80eac:	d503201f 	nop
   80eb0:	52800400 	mov	w0, #0x20                  	// #32
   80eb4:	9400119f 	bl	85530 <_ZN5stdio4putcEc>
   80eb8:	52800400 	mov	w0, #0x20                  	// #32
   80ebc:	9400119d 	bl	85530 <_ZN5stdio4putcEc>
   80ec0:	b9400281 	ldr	w1, [x20]
   80ec4:	11000673 	add	w19, w19, #0x1
   80ec8:	6b13003f 	cmp	w1, w19
   80ecc:	54ffff28 	b.hi	80eb0 <_ZN6kernel4initEv+0x3a0>  // b.pmore
   80ed0:	910642c0 	add	x0, x22, #0x190
   80ed4:	940011a3 	bl	85560 <_ZN5stdio4putsEPKc>
   80ed8:	f941f2b4 	ldr	x20, [x21, #992]
   80edc:	b9400280 	ldr	w0, [x20]
   80ee0:	34000140 	cbz	w0, 80f08 <_ZN6kernel4initEv+0x3f8>
   80ee4:	52800013 	mov	w19, #0x0                   	// #0
   80ee8:	52800400 	mov	w0, #0x20                  	// #32
   80eec:	94001191 	bl	85530 <_ZN5stdio4putcEc>
   80ef0:	52800400 	mov	w0, #0x20                  	// #32
   80ef4:	9400118f 	bl	85530 <_ZN5stdio4putcEc>
   80ef8:	b9400281 	ldr	w1, [x20]
   80efc:	11000673 	add	w19, w19, #0x1
   80f00:	6b13003f 	cmp	w1, w19
   80f04:	54ffff28 	b.hi	80ee8 <_ZN6kernel4initEv+0x3d8>  // b.pmore
   80f08:	90000040 	adrp	x0, 88000 <__rodata_start>
   80f0c:	91066000 	add	x0, x0, #0x198
   80f10:	94001194 	bl	85560 <_ZN5stdio4putsEPKc>
   80f14:	f941f2b4 	ldr	x20, [x21, #992]
   80f18:	b9400280 	ldr	w0, [x20]
   80f1c:	51000400 	sub	w0, w0, #0x1
   80f20:	b9000280 	str	w0, [x20]
   80f24:	34000160 	cbz	w0, 80f50 <_ZN6kernel4initEv+0x440>
   80f28:	52800013 	mov	w19, #0x0                   	// #0
   80f2c:	d503201f 	nop
   80f30:	52800400 	mov	w0, #0x20                  	// #32
   80f34:	9400117f 	bl	85530 <_ZN5stdio4putcEc>
   80f38:	52800400 	mov	w0, #0x20                  	// #32
   80f3c:	9400117d 	bl	85530 <_ZN5stdio4putcEc>
   80f40:	b9400281 	ldr	w1, [x20]
   80f44:	11000673 	add	w19, w19, #0x1
   80f48:	6b13003f 	cmp	w1, w19
   80f4c:	54ffff28 	b.hi	80f30 <_ZN6kernel4initEv+0x420>  // b.pmore
   80f50:	910642c0 	add	x0, x22, #0x190
   80f54:	94001183 	bl	85560 <_ZN5stdio4putsEPKc>
   80f58:	f9419eb5 	ldr	x21, [x21, #824]
   80f5c:	c8dffea0 	ldar	x0, [x21]
   80f60:	f9401013 	ldr	x19, [x0, #32]
   80f64:	52800001 	mov	w1, #0x0                   	// #0
   80f68:	52884815 	mov	w21, #0x4240                	// #16960
   80f6c:	72a001f5 	movk	w21, #0xf, lsl #16
   80f70:	91006273 	add	x19, x19, #0x18
   80f74:	90000054 	adrp	x20, 88000 <__rodata_start>
   80f78:	91072294 	add	x20, x20, #0x1c8
   80f7c:	aa1303e0 	mov	x0, x19
   80f80:	94000414 	bl	81fd0 <_ZN10ProcessLog12_print_startE14ProcessLogType>
   80f84:	90000041 	adrp	x1, 88000 <__rodata_start>
   80f88:	9106c021 	add	x1, x1, #0x1b0
   80f8c:	aa1303e0 	mov	x0, x19
   80f90:	9400040c 	bl	81fc0 <_ZN10ProcessLog4putsEPKc>
   80f94:	d503201f 	nop
   80f98:	2a1503e0 	mov	w0, w21
   80f9c:	94001289 	bl	859c0 <_ZN5timer6udelayEj>
   80fa0:	aa1303e0 	mov	x0, x19
   80fa4:	52800001 	mov	w1, #0x0                   	// #0
   80fa8:	9400040a 	bl	81fd0 <_ZN10ProcessLog12_print_startE14ProcessLogType>
   80fac:	aa1403e1 	mov	x1, x20
   80fb0:	aa1303e0 	mov	x0, x19
   80fb4:	94000403 	bl	81fc0 <_ZN10ProcessLog4putsEPKc>
   80fb8:	17fffff8 	b	80f98 <_ZN6kernel4initEv+0x488>
   80fbc:	00000000 	.inst	0x00000000 ; undefined

0000000000080fc0 <raise>:
   80fc0:	a9bd7bfd 	stp	x29, x30, [sp, #-48]!
   80fc4:	90000262 	adrp	x2, cc000 <_ZN10graphics2d4font12_GLOBAL__N_110bufferDataE+0x20c78>
   80fc8:	910003fd 	mov	x29, sp
   80fcc:	a90153f3 	stp	x19, x20, [sp, #16]
   80fd0:	f941f054 	ldr	x20, [x2, #992]
   80fd4:	f90013f5 	str	x21, [sp, #32]
   80fd8:	2a0003f5 	mov	w21, w0
   80fdc:	b9400280 	ldr	w0, [x20]
   80fe0:	34000140 	cbz	w0, 81008 <raise+0x48>
   80fe4:	52800013 	mov	w19, #0x0                   	// #0
   80fe8:	52800400 	mov	w0, #0x20                  	// #32
   80fec:	94001151 	bl	85530 <_ZN5stdio4putcEc>
   80ff0:	52800400 	mov	w0, #0x20                  	// #32
   80ff4:	9400114f 	bl	85530 <_ZN5stdio4putcEc>
   80ff8:	b9400281 	ldr	w1, [x20]
   80ffc:	11000673 	add	w19, w19, #0x1
   81000:	6b13003f 	cmp	w1, w19
   81004:	54ffff28 	b.hi	80fe8 <raise+0x28>  // b.pmore
   81008:	f0000020 	adrp	x0, 88000 <__rodata_start>
   8100c:	91082000 	add	x0, x0, #0x208
   81010:	94001154 	bl	85560 <_ZN5stdio4putsEPKc>
   81014:	2a1503e0 	mov	w0, w21
   81018:	940014ea 	bl	863c0 <_Z9to_stringi>
   8101c:	94001151 	bl	85560 <_ZN5stdio4putsEPKc>
   81020:	f0000020 	adrp	x0, 88000 <__rodata_start>
   81024:	91138000 	add	x0, x0, #0x4e0
   81028:	9400114e 	bl	85560 <_ZN5stdio4putsEPKc>
   8102c:	14000000 	b	8102c <raise+0x6c>

0000000000081030 <_ZN4libc4initEv>:
   81030:	a9bd7bfd 	stp	x29, x30, [sp, #-48]!
   81034:	910003fd 	mov	x29, sp
   81038:	a90153f3 	stp	x19, x20, [sp, #16]
   8103c:	f0000254 	adrp	x20, cc000 <_ZN10graphics2d4font12_GLOBAL__N_110bufferDataE+0x20c78>
   81040:	f90013f5 	str	x21, [sp, #32]
   81044:	f941f295 	ldr	x21, [x20, #992]
   81048:	b94002a0 	ldr	w0, [x21]
   8104c:	34000160 	cbz	w0, 81078 <_ZN4libc4initEv+0x48>
   81050:	52800013 	mov	w19, #0x0                   	// #0
   81054:	d503201f 	nop
   81058:	52800400 	mov	w0, #0x20                  	// #32
   8105c:	94001135 	bl	85530 <_ZN5stdio4putcEc>
   81060:	52800400 	mov	w0, #0x20                  	// #32
   81064:	94001133 	bl	85530 <_ZN5stdio4putcEc>
   81068:	b94002a1 	ldr	w1, [x21]
   8106c:	11000673 	add	w19, w19, #0x1
   81070:	6b13003f 	cmp	w1, w19
   81074:	54ffff28 	b.hi	81058 <_ZN4libc4initEv+0x28>  // b.pmore
   81078:	f0000020 	adrp	x0, 88000 <__rodata_start>
   8107c:	91086000 	add	x0, x0, #0x218
   81080:	94001138 	bl	85560 <_ZN5stdio4putsEPKc>
   81084:	f941f295 	ldr	x21, [x20, #992]
   81088:	b94002a0 	ldr	w0, [x21]
   8108c:	11000400 	add	w0, w0, #0x1
   81090:	b90002a0 	str	w0, [x21]
   81094:	34000160 	cbz	w0, 810c0 <_ZN4libc4initEv+0x90>
   81098:	52800013 	mov	w19, #0x0                   	// #0
   8109c:	d503201f 	nop
   810a0:	52800400 	mov	w0, #0x20                  	// #32
   810a4:	94001123 	bl	85530 <_ZN5stdio4putcEc>
   810a8:	52800400 	mov	w0, #0x20                  	// #32
   810ac:	94001121 	bl	85530 <_ZN5stdio4putcEc>
   810b0:	b94002a1 	ldr	w1, [x21]
   810b4:	11000673 	add	w19, w19, #0x1
   810b8:	6b13003f 	cmp	w1, w19
   810bc:	54ffff28 	b.hi	810a0 <_ZN4libc4initEv+0x70>  // b.pmore
   810c0:	f0000020 	adrp	x0, 88000 <__rodata_start>
   810c4:	91100000 	add	x0, x0, #0x400
   810c8:	94001126 	bl	85560 <_ZN5stdio4putsEPKc>
   810cc:	f941e293 	ldr	x19, [x20, #960]
   810d0:	f941ba95 	ldr	x21, [x20, #880]
   810d4:	eb15027f 	cmp	x19, x21
   810d8:	54000100 	b.eq	810f8 <_ZN4libc4initEv+0xc8>  // b.none
   810dc:	d503201f 	nop
   810e0:	528005c0 	mov	w0, #0x2e                  	// #46
   810e4:	94001113 	bl	85530 <_ZN5stdio4putcEc>
   810e8:	f8408660 	ldr	x0, [x19], #8
   810ec:	d63f0000 	blr	x0
   810f0:	eb15027f 	cmp	x19, x21
   810f4:	54ffff61 	b.ne	810e0 <_ZN4libc4initEv+0xb0>  // b.any
   810f8:	52800140 	mov	w0, #0xa                   	// #10
   810fc:	9400110d 	bl	85530 <_ZN5stdio4putcEc>
   81100:	f941f294 	ldr	x20, [x20, #992]
   81104:	b9400280 	ldr	w0, [x20]
   81108:	51000400 	sub	w0, w0, #0x1
   8110c:	b9000280 	str	w0, [x20]
   81110:	34000140 	cbz	w0, 81138 <_ZN4libc4initEv+0x108>
   81114:	52800013 	mov	w19, #0x0                   	// #0
   81118:	52800400 	mov	w0, #0x20                  	// #32
   8111c:	94001105 	bl	85530 <_ZN5stdio4putcEc>
   81120:	52800400 	mov	w0, #0x20                  	// #32
   81124:	94001103 	bl	85530 <_ZN5stdio4putcEc>
   81128:	b9400281 	ldr	w1, [x20]
   8112c:	11000673 	add	w19, w19, #0x1
   81130:	6b13003f 	cmp	w1, w19
   81134:	54ffff28 	b.hi	81118 <_ZN4libc4initEv+0xe8>  // b.pmore
   81138:	a94153f3 	ldp	x19, x20, [sp, #16]
   8113c:	f0000020 	adrp	x0, 88000 <__rodata_start>
   81140:	91064000 	add	x0, x0, #0x190
   81144:	f94013f5 	ldr	x21, [sp, #32]
   81148:	a8c37bfd 	ldp	x29, x30, [sp], #48
   8114c:	14001105 	b	85560 <_ZN5stdio4putsEPKc>

0000000000081150 <memset>:
   81150:	7100045f 	cmp	w2, #0x1
   81154:	12001c21 	and	w1, w1, #0xff
   81158:	540000e0 	b.eq	81174 <memset+0x24>  // b.none
   8115c:	51000442 	sub	w2, w2, #0x1
   81160:	8b020002 	add	x2, x0, x2
   81164:	d503201f 	nop
   81168:	38001401 	strb	w1, [x0], #1
   8116c:	eb02001f 	cmp	x0, x2
   81170:	54ffffc1 	b.ne	81168 <memset+0x18>  // b.any
   81174:	d65f03c0 	ret
   81178:	d503201f 	nop
   8117c:	d503201f 	nop

0000000000081180 <_ZN6memory4Page5clearEv>:
   81180:	f9400c00 	ldr	x0, [x0, #24]
   81184:	52820001 	mov	w1, #0x1000                	// #4096
   81188:	14001442 	b	86290 <_Z5bzeroPvi>
   8118c:	d503201f 	nop

0000000000081190 <_ZN6memory14_allocate_pageEv>:
   81190:	a9be7bfd 	stp	x29, x30, [sp, #-32]!
   81194:	f0000240 	adrp	x0, cc000 <_ZN10graphics2d4font12_GLOBAL__N_110bufferDataE+0x20c78>
   81198:	910003fd 	mov	x29, sp
   8119c:	f9416001 	ldr	x1, [x0, #704]
   811a0:	b9401022 	ldr	w2, [x1, #16]
   811a4:	f9000bf3 	str	x19, [sp, #16]
   811a8:	d2800013 	mov	x19, #0x0                   	// #0
   811ac:	340001e2 	cbz	w2, 811e8 <_ZN6memory14_allocate_pageEv+0x58>
   811b0:	f9400033 	ldr	x19, [x1]
   811b4:	b40001b3 	cbz	x19, 811e8 <_ZN6memory14_allocate_pageEv+0x58>
   811b8:	f9400263 	ldr	x3, [x19]
   811bc:	f9000023 	str	x3, [x1]
   811c0:	b40001c3 	cbz	x3, 811f8 <_ZN6memory14_allocate_pageEv+0x68>
   811c4:	f900047f 	str	xzr, [x3, #8]
   811c8:	39408263 	ldrb	w3, [x19, #32]
   811cc:	51000442 	sub	w2, w2, #0x1
   811d0:	f9416001 	ldr	x1, [x0, #704]
   811d4:	32000063 	orr	w3, w3, #0x1
   811d8:	39008263 	strb	w3, [x19, #32]
   811dc:	aa1303e0 	mov	x0, x19
   811e0:	b9001022 	str	w2, [x1, #16]
   811e4:	97ffffe7 	bl	81180 <_ZN6memory4Page5clearEv>
   811e8:	aa1303e0 	mov	x0, x19
   811ec:	f9400bf3 	ldr	x19, [sp, #16]
   811f0:	a8c27bfd 	ldp	x29, x30, [sp], #32
   811f4:	d65f03c0 	ret
   811f8:	f9400423 	ldr	x3, [x1, #8]
   811fc:	eb03027f 	cmp	x19, x3
   81200:	54fffe41 	b.ne	811c8 <_ZN6memory14_allocate_pageEv+0x38>  // b.any
   81204:	f900043f 	str	xzr, [x1, #8]
   81208:	17fffff0 	b	811c8 <_ZN6memory14_allocate_pageEv+0x38>
   8120c:	d503201f 	nop

0000000000081210 <_ZN6memory13allocate_pageEv>:
   81210:	a9bd7bfd 	stp	x29, x30, [sp, #-48]!
   81214:	52800020 	mov	w0, #0x1                   	// #1
   81218:	910003fd 	mov	x29, sp
   8121c:	a90153f3 	stp	x19, x20, [sp, #16]
   81220:	f0000254 	adrp	x20, cc000 <_ZN10graphics2d4font12_GLOBAL__N_110bufferDataE+0x20c78>
   81224:	f9413e81 	ldr	x1, [x20, #632]
   81228:	f90013f5 	str	x21, [sp, #32]
   8122c:	9400152d 	bl	866e0 <__aarch64_ldadd4_acq_rel>
   81230:	35000040 	cbnz	w0, 81238 <_ZN6memory13allocate_pageEv+0x28>
   81234:	d50342df 	msr	daifset, #0x2
   81238:	f9419693 	ldr	x19, [x20, #808]
   8123c:	91002273 	add	x19, x19, #0x8
   81240:	aa1303e1 	mov	x1, x19
   81244:	52800020 	mov	w0, #0x1                   	// #1
   81248:	9400151a 	bl	866b0 <__aarch64_swp1_acq>
   8124c:	72001c1f 	tst	w0, #0xff
   81250:	54ffff81 	b.ne	81240 <_ZN6memory13allocate_pageEv+0x30>  // b.any
   81254:	97ffffcf 	bl	81190 <_ZN6memory14_allocate_pageEv>
   81258:	aa0003f5 	mov	x21, x0
   8125c:	089ffe7f 	stlrb	wzr, [x19]
   81260:	f9413e81 	ldr	x1, [x20, #632]
   81264:	12800000 	mov	w0, #0xffffffff            	// #-1
   81268:	9400151e 	bl	866e0 <__aarch64_ldadd4_acq_rel>
   8126c:	7100041f 	cmp	w0, #0x1
   81270:	54000041 	b.ne	81278 <_ZN6memory13allocate_pageEv+0x68>  // b.any
   81274:	d50342ff 	msr	daifclr, #0x2
   81278:	aa1503e0 	mov	x0, x21
   8127c:	a94153f3 	ldp	x19, x20, [sp, #16]
   81280:	f94013f5 	ldr	x21, [sp, #32]
   81284:	a8c37bfd 	ldp	x29, x30, [sp], #48
   81288:	d65f03c0 	ret
   8128c:	d503201f 	nop

0000000000081290 <_ZN6memory15_allocate_pagesEj>:
   81290:	a9bd7bfd 	stp	x29, x30, [sp, #-48]!
   81294:	910003fd 	mov	x29, sp
   81298:	a90153f3 	stp	x19, x20, [sp, #16]
   8129c:	340006c0 	cbz	w0, 81374 <_ZN6memory15_allocate_pagesEj+0xe4>
   812a0:	7100041f 	cmp	w0, #0x1
   812a4:	54000720 	b.eq	81388 <_ZN6memory15_allocate_pagesEj+0xf8>  // b.none
   812a8:	a9025bf5 	stp	x21, x22, [sp, #32]
   812ac:	f0000255 	adrp	x21, cc000 <_ZN10graphics2d4font12_GLOBAL__N_110bufferDataE+0x20c78>
   812b0:	f94162a1 	ldr	x1, [x21, #704]
   812b4:	f9400033 	ldr	x19, [x1]
   812b8:	b4000473 	cbz	x19, 81344 <_ZN6memory15_allocate_pagesEj+0xb4>
   812bc:	51000405 	sub	w5, w0, #0x1
   812c0:	52800501 	mov	w1, #0x28                  	// #40
   812c4:	9ba17ca5 	umull	x5, w5, w1
   812c8:	8b050264 	add	x4, x19, x5
   812cc:	aa1303e1 	mov	x1, x19
   812d0:	f9401023 	ldr	x3, [x1, #32]
   812d4:	9100a022 	add	x2, x1, #0x28
   812d8:	aa0203e1 	mov	x1, x2
   812dc:	721e007f 	tst	w3, #0x4
   812e0:	540003c0 	b.eq	81358 <_ZN6memory15_allocate_pagesEj+0xc8>  // b.none
   812e4:	f9401042 	ldr	x2, [x2, #32]
   812e8:	37000382 	tbnz	w2, #0, 81358 <_ZN6memory15_allocate_pagesEj+0xc8>
   812ec:	eb01009f 	cmp	x4, x1
   812f0:	54ffff01 	b.ne	812d0 <_ZN6memory15_allocate_pagesEj+0x40>  // b.any
   812f4:	52800516 	mov	w22, #0x28                  	// #40
   812f8:	aa1303f4 	mov	x20, x19
   812fc:	f94162b5 	ldr	x21, [x21, #704]
   81300:	9bb64c16 	umaddl	x22, w0, w22, x19
   81304:	a9400281 	ldp	x1, x0, [x20]
   81308:	b4000320 	cbz	x0, 8136c <_ZN6memory15_allocate_pagesEj+0xdc>
   8130c:	f9000001 	str	x1, [x0]
   81310:	b40002a1 	cbz	x1, 81364 <_ZN6memory15_allocate_pagesEj+0xd4>
   81314:	f9000420 	str	x0, [x1, #8]
   81318:	39408282 	ldrb	w2, [x20, #32]
   8131c:	aa1403e0 	mov	x0, x20
   81320:	b94012a1 	ldr	w1, [x21, #16]
   81324:	9100a294 	add	x20, x20, #0x28
   81328:	32000042 	orr	w2, w2, #0x1
   8132c:	381f8282 	sturb	w2, [x20, #-8]
   81330:	51000421 	sub	w1, w1, #0x1
   81334:	b90012a1 	str	w1, [x21, #16]
   81338:	97ffff92 	bl	81180 <_ZN6memory4Page5clearEv>
   8133c:	eb16029f 	cmp	x20, x22
   81340:	54fffe21 	b.ne	81304 <_ZN6memory15_allocate_pagesEj+0x74>  // b.any
   81344:	aa1303e0 	mov	x0, x19
   81348:	a94153f3 	ldp	x19, x20, [sp, #16]
   8134c:	a9425bf5 	ldp	x21, x22, [sp, #32]
   81350:	a8c37bfd 	ldp	x29, x30, [sp], #48
   81354:	d65f03c0 	ret
   81358:	f9400273 	ldr	x19, [x19]
   8135c:	b5fffb73 	cbnz	x19, 812c8 <_ZN6memory15_allocate_pagesEj+0x38>
   81360:	17fffff9 	b	81344 <_ZN6memory15_allocate_pagesEj+0xb4>
   81364:	f90006a0 	str	x0, [x21, #8]
   81368:	17ffffec 	b	81318 <_ZN6memory15_allocate_pagesEj+0x88>
   8136c:	f90002a1 	str	x1, [x21]
   81370:	17ffffe8 	b	81310 <_ZN6memory15_allocate_pagesEj+0x80>
   81374:	d2800013 	mov	x19, #0x0                   	// #0
   81378:	aa1303e0 	mov	x0, x19
   8137c:	a94153f3 	ldp	x19, x20, [sp, #16]
   81380:	a8c37bfd 	ldp	x29, x30, [sp], #48
   81384:	d65f03c0 	ret
   81388:	a94153f3 	ldp	x19, x20, [sp, #16]
   8138c:	a8c37bfd 	ldp	x29, x30, [sp], #48
   81390:	17ffff80 	b	81190 <_ZN6memory14_allocate_pageEv>
   81394:	d503201f 	nop
   81398:	d503201f 	nop
   8139c:	d503201f 	nop

00000000000813a0 <_ZN6memory14allocate_pagesEj>:
   813a0:	a9bd7bfd 	stp	x29, x30, [sp, #-48]!
   813a4:	910003fd 	mov	x29, sp
   813a8:	a90153f3 	stp	x19, x20, [sp, #16]
   813ac:	f0000254 	adrp	x20, cc000 <_ZN10graphics2d4font12_GLOBAL__N_110bufferDataE+0x20c78>
   813b0:	f9413e81 	ldr	x1, [x20, #632]
   813b4:	f90013f5 	str	x21, [sp, #32]
   813b8:	2a0003f5 	mov	w21, w0
   813bc:	52800020 	mov	w0, #0x1                   	// #1
   813c0:	940014c8 	bl	866e0 <__aarch64_ldadd4_acq_rel>
   813c4:	35000040 	cbnz	w0, 813cc <_ZN6memory14allocate_pagesEj+0x2c>
   813c8:	d50342df 	msr	daifset, #0x2
   813cc:	f9419693 	ldr	x19, [x20, #808]
   813d0:	91002273 	add	x19, x19, #0x8
   813d4:	d503201f 	nop
   813d8:	aa1303e1 	mov	x1, x19
   813dc:	52800020 	mov	w0, #0x1                   	// #1
   813e0:	940014b4 	bl	866b0 <__aarch64_swp1_acq>
   813e4:	72001c1f 	tst	w0, #0xff
   813e8:	54ffff81 	b.ne	813d8 <_ZN6memory14allocate_pagesEj+0x38>  // b.any
   813ec:	2a1503e0 	mov	w0, w21
   813f0:	97ffffa8 	bl	81290 <_ZN6memory15_allocate_pagesEj>
   813f4:	aa0003f5 	mov	x21, x0
   813f8:	089ffe7f 	stlrb	wzr, [x19]
   813fc:	f9413e81 	ldr	x1, [x20, #632]
   81400:	12800000 	mov	w0, #0xffffffff            	// #-1
   81404:	940014b7 	bl	866e0 <__aarch64_ldadd4_acq_rel>
   81408:	7100041f 	cmp	w0, #0x1
   8140c:	54000041 	b.ne	81414 <_ZN6memory14allocate_pagesEj+0x74>  // b.any
   81410:	d50342ff 	msr	daifclr, #0x2
   81414:	aa1503e0 	mov	x0, x21
   81418:	a94153f3 	ldp	x19, x20, [sp, #16]
   8141c:	f94013f5 	ldr	x21, [sp, #32]
   81420:	a8c37bfd 	ldp	x29, x30, [sp], #48
   81424:	d65f03c0 	ret
   81428:	d503201f 	nop
   8142c:	d503201f 	nop

0000000000081430 <_ZN6memory10_free_pageERNS_4PageE>:
   81430:	39408001 	ldrb	w1, [x0, #32]
   81434:	121f7821 	and	w1, w1, #0xfffffffe
   81438:	39008001 	strb	w1, [x0, #32]
   8143c:	f0000241 	adrp	x1, cc000 <_ZN10graphics2d4font12_GLOBAL__N_110bufferDataE+0x20c78>
   81440:	f9416022 	ldr	x2, [x1, #704]
   81444:	f9400442 	ldr	x2, [x2, #8]
   81448:	b4000042 	cbz	x2, 81450 <_ZN6memory10_free_pageERNS_4PageE+0x20>
   8144c:	f9000040 	str	x0, [x2]
   81450:	f9416023 	ldr	x3, [x1, #704]
   81454:	a900081f 	stp	xzr, x2, [x0]
   81458:	f9400062 	ldr	x2, [x3]
   8145c:	f9000460 	str	x0, [x3, #8]
   81460:	b40000c2 	cbz	x2, 81478 <_ZN6memory10_free_pageERNS_4PageE+0x48>
   81464:	f9416021 	ldr	x1, [x1, #704]
   81468:	b9401020 	ldr	w0, [x1, #16]
   8146c:	11000400 	add	w0, w0, #0x1
   81470:	b9001020 	str	w0, [x1, #16]
   81474:	d65f03c0 	ret
   81478:	f9416021 	ldr	x1, [x1, #704]
   8147c:	f9000060 	str	x0, [x3]
   81480:	b9401020 	ldr	w0, [x1, #16]
   81484:	11000400 	add	w0, w0, #0x1
   81488:	b9001020 	str	w0, [x1, #16]
   8148c:	d65f03c0 	ret

0000000000081490 <_ZN6memory9free_pageERNS_4PageE>:
   81490:	a9bd7bfd 	stp	x29, x30, [sp, #-48]!
   81494:	910003fd 	mov	x29, sp
   81498:	a90153f3 	stp	x19, x20, [sp, #16]
   8149c:	f0000254 	adrp	x20, cc000 <_ZN10graphics2d4font12_GLOBAL__N_110bufferDataE+0x20c78>
   814a0:	f9413e81 	ldr	x1, [x20, #632]
   814a4:	f90013f5 	str	x21, [sp, #32]
   814a8:	aa0003f5 	mov	x21, x0
   814ac:	52800020 	mov	w0, #0x1                   	// #1
   814b0:	9400148c 	bl	866e0 <__aarch64_ldadd4_acq_rel>
   814b4:	35000040 	cbnz	w0, 814bc <_ZN6memory9free_pageERNS_4PageE+0x2c>
   814b8:	d50342df 	msr	daifset, #0x2
   814bc:	f9419693 	ldr	x19, [x20, #808]
   814c0:	91002273 	add	x19, x19, #0x8
   814c4:	d503201f 	nop
   814c8:	aa1303e1 	mov	x1, x19
   814cc:	52800020 	mov	w0, #0x1                   	// #1
   814d0:	94001478 	bl	866b0 <__aarch64_swp1_acq>
   814d4:	72001c1f 	tst	w0, #0xff
   814d8:	54ffff81 	b.ne	814c8 <_ZN6memory9free_pageERNS_4PageE+0x38>  // b.any
   814dc:	aa1503e0 	mov	x0, x21
   814e0:	97ffffd4 	bl	81430 <_ZN6memory10_free_pageERNS_4PageE>
   814e4:	089ffe7f 	stlrb	wzr, [x19]
   814e8:	f9413e81 	ldr	x1, [x20, #632]
   814ec:	12800000 	mov	w0, #0xffffffff            	// #-1
   814f0:	9400147c 	bl	866e0 <__aarch64_ldadd4_acq_rel>
   814f4:	7100041f 	cmp	w0, #0x1
   814f8:	54000041 	b.ne	81500 <_ZN6memory9free_pageERNS_4PageE+0x70>  // b.any
   814fc:	d50342ff 	msr	daifclr, #0x2
   81500:	a94153f3 	ldp	x19, x20, [sp, #16]
   81504:	f94013f5 	ldr	x21, [sp, #32]
   81508:	a8c37bfd 	ldp	x29, x30, [sp], #48
   8150c:	d65f03c0 	ret

0000000000081510 <_ZN6memory5kfreeEPv>:
   81510:	a9bd7bfd 	stp	x29, x30, [sp, #-48]!
   81514:	910003fd 	mov	x29, sp
   81518:	a90153f3 	stp	x19, x20, [sp, #16]
   8151c:	f0000254 	adrp	x20, cc000 <_ZN10graphics2d4font12_GLOBAL__N_110bufferDataE+0x20c78>
   81520:	f9413e81 	ldr	x1, [x20, #632]
   81524:	f90013f5 	str	x21, [sp, #32]
   81528:	aa0003f5 	mov	x21, x0
   8152c:	52800020 	mov	w0, #0x1                   	// #1
   81530:	9400146c 	bl	866e0 <__aarch64_ldadd4_acq_rel>
   81534:	35000040 	cbnz	w0, 8153c <_ZN6memory5kfreeEPv+0x2c>
   81538:	d50342df 	msr	daifset, #0x2
   8153c:	f9419693 	ldr	x19, [x20, #808]
   81540:	91002273 	add	x19, x19, #0x8
   81544:	d503201f 	nop
   81548:	aa1303e1 	mov	x1, x19
   8154c:	52800020 	mov	w0, #0x1                   	// #1
   81550:	94001458 	bl	866b0 <__aarch64_swp1_acq>
   81554:	72001c1f 	tst	w0, #0xff
   81558:	54ffff81 	b.ne	81548 <_ZN6memory5kfreeEPv+0x38>  // b.any
   8155c:	b40007f5 	cbz	x21, 81658 <_ZN6memory5kfreeEPv+0x148>
   81560:	f9417e80 	ldr	x0, [x20, #760]
   81564:	d10052a5 	sub	x5, x21, #0x14
   81568:	b94010a3 	ldr	w3, [x5, #16]
   8156c:	f9400002 	ldr	x2, [x0]
   81570:	f9400c01 	ldr	x1, [x0, #24]
   81574:	8b234042 	add	x2, x2, w3, uxtw
   81578:	f9000002 	str	x2, [x0]
   8157c:	b4000821 	cbz	x1, 81680 <_ZN6memory5kfreeEPv+0x170>
   81580:	713ffc7f 	cmp	w3, #0xfff
   81584:	54000489 	b.ls	81614 <_ZN6memory5kfreeEPv+0x104>  // b.plast
   81588:	f9401002 	ldr	x2, [x0, #32]
   8158c:	b5000082 	cbnz	x2, 8159c <_ZN6memory5kfreeEPv+0x8c>
   81590:	14000053 	b	816dc <_ZN6memory5kfreeEPv+0x1cc>
   81594:	f9400442 	ldr	x2, [x2, #8]
   81598:	b4000962 	cbz	x2, 816c4 <_ZN6memory5kfreeEPv+0x1b4>
   8159c:	b9401044 	ldr	w4, [x2, #16]
   815a0:	6b04007f 	cmp	w3, w4
   815a4:	54ffff83 	b.cc	81594 <_ZN6memory5kfreeEPv+0x84>  // b.lo, b.ul, b.last
   815a8:	f9400040 	ldr	x0, [x2]
   815ac:	f90004a2 	str	x2, [x5, #8]
   815b0:	f81ec2a0 	stur	x0, [x21, #-20]
   815b4:	f9000045 	str	x5, [x2]
   815b8:	f85ec2a0 	ldur	x0, [x21, #-20]
   815bc:	b40007e0 	cbz	x0, 816b8 <_ZN6memory5kfreeEPv+0x1a8>
   815c0:	f9000405 	str	x5, [x0, #8]
   815c4:	f9417e81 	ldr	x1, [x20, #760]
   815c8:	b9402820 	ldr	w0, [x1, #40]
   815cc:	11000400 	add	w0, w0, #0x1
   815d0:	b9002820 	str	w0, [x1, #40]
   815d4:	f9417e81 	ldr	x1, [x20, #760]
   815d8:	52800022 	mov	w2, #0x1                   	// #1
   815dc:	f9419680 	ldr	x0, [x20, #808]
   815e0:	39004022 	strb	w2, [x1, #16]
   815e4:	91002000 	add	x0, x0, #0x8
   815e8:	089ffc1f 	stlrb	wzr, [x0]
   815ec:	f9413e81 	ldr	x1, [x20, #632]
   815f0:	12800000 	mov	w0, #0xffffffff            	// #-1
   815f4:	9400143b 	bl	866e0 <__aarch64_ldadd4_acq_rel>
   815f8:	7100041f 	cmp	w0, #0x1
   815fc:	54000041 	b.ne	81604 <_ZN6memory5kfreeEPv+0xf4>  // b.any
   81600:	d50342ff 	msr	daifclr, #0x2
   81604:	a94153f3 	ldp	x19, x20, [sp, #16]
   81608:	f94013f5 	ldr	x21, [sp, #32]
   8160c:	a8c37bfd 	ldp	x29, x30, [sp], #48
   81610:	d65f03c0 	ret
   81614:	b9401020 	ldr	w0, [x1, #16]
   81618:	6b00007f 	cmp	w3, w0
   8161c:	54000229 	b.ls	81660 <_ZN6memory5kfreeEPv+0x150>  // b.plast
   81620:	f9400021 	ldr	x1, [x1]
   81624:	b5ffff81 	cbnz	x1, 81614 <_ZN6memory5kfreeEPv+0x104>
   81628:	f9417e80 	ldr	x0, [x20, #760]
   8162c:	f9401001 	ldr	x1, [x0, #32]
   81630:	b4000041 	cbz	x1, 81638 <_ZN6memory5kfreeEPv+0x128>
   81634:	f9000025 	str	x5, [x1]
   81638:	f9417e80 	ldr	x0, [x20, #760]
   8163c:	f90004a1 	str	x1, [x5, #8]
   81640:	b9402801 	ldr	w1, [x0, #40]
   81644:	f81ec2bf 	stur	xzr, [x21, #-20]
   81648:	11000421 	add	w1, w1, #0x1
   8164c:	f9001005 	str	x5, [x0, #32]
   81650:	b9002801 	str	w1, [x0, #40]
   81654:	17ffffe0 	b	815d4 <_ZN6memory5kfreeEPv+0xc4>
   81658:	089ffe7f 	stlrb	wzr, [x19]
   8165c:	17ffffe4 	b	815ec <_ZN6memory5kfreeEPv+0xdc>
   81660:	f9400420 	ldr	x0, [x1, #8]
   81664:	f81ec2a1 	stur	x1, [x21, #-20]
   81668:	f90004a0 	str	x0, [x5, #8]
   8166c:	f9000425 	str	x5, [x1, #8]
   81670:	f94004a0 	ldr	x0, [x5, #8]
   81674:	b40001c0 	cbz	x0, 816ac <_ZN6memory5kfreeEPv+0x19c>
   81678:	f9000005 	str	x5, [x0]
   8167c:	17ffffd2 	b	815c4 <_ZN6memory5kfreeEPv+0xb4>
   81680:	f9401001 	ldr	x1, [x0, #32]
   81684:	b4000041 	cbz	x1, 8168c <_ZN6memory5kfreeEPv+0x17c>
   81688:	f9000025 	str	x5, [x1]
   8168c:	f9417e80 	ldr	x0, [x20, #760]
   81690:	f90004a1 	str	x1, [x5, #8]
   81694:	b9402801 	ldr	w1, [x0, #40]
   81698:	f81ec2bf 	stur	xzr, [x21, #-20]
   8169c:	11000421 	add	w1, w1, #0x1
   816a0:	a9019405 	stp	x5, x5, [x0, #24]
   816a4:	b9002801 	str	w1, [x0, #40]
   816a8:	17ffffcb 	b	815d4 <_ZN6memory5kfreeEPv+0xc4>
   816ac:	f9417e80 	ldr	x0, [x20, #760]
   816b0:	f9000c05 	str	x5, [x0, #24]
   816b4:	17ffffc4 	b	815c4 <_ZN6memory5kfreeEPv+0xb4>
   816b8:	f9417e80 	ldr	x0, [x20, #760]
   816bc:	f9001005 	str	x5, [x0, #32]
   816c0:	17ffffc1 	b	815c4 <_ZN6memory5kfreeEPv+0xb4>
   816c4:	f9417e80 	ldr	x0, [x20, #760]
   816c8:	f9000425 	str	x5, [x1, #8]
   816cc:	f90004bf 	str	xzr, [x5, #8]
   816d0:	f81ec2a1 	stur	x1, [x21, #-20]
   816d4:	f9000c05 	str	x5, [x0, #24]
   816d8:	17ffffbb 	b	815c4 <_ZN6memory5kfreeEPv+0xb4>
   816dc:	f9000425 	str	x5, [x1, #8]
   816e0:	f90004bf 	str	xzr, [x5, #8]
   816e4:	f81ec2a1 	stur	x1, [x21, #-20]
   816e8:	a9019405 	stp	x5, x5, [x0, #24]
   816ec:	17ffffb6 	b	815c4 <_ZN6memory5kfreeEPv+0xb4>

00000000000816f0 <_ZN6memory20is_dangerous_addressEPvS0_>:
   816f0:	a9ba7bfd 	stp	x29, x30, [sp, #-96]!
   816f4:	910003fd 	mov	x29, sp
   816f8:	a9046bf9 	stp	x25, x26, [sp, #64]
   816fc:	f0000259 	adrp	x25, cc000 <_ZN10graphics2d4font12_GLOBAL__N_110bufferDataE+0x20c78>
   81700:	f9417f22 	ldr	x2, [x25, #760]
   81704:	a90153f3 	stp	x19, x20, [sp, #16]
   81708:	a90363f7 	stp	x23, x24, [sp, #48]
   8170c:	aa0003f7 	mov	x23, x0
   81710:	f9400c53 	ldr	x19, [x2, #24]
   81714:	b40007b3 	cbz	x19, 81808 <_ZN6memory20is_dangerous_addressEPvS0_+0x118>
   81718:	f000003a 	adrp	x26, 88000 <__rodata_start>
   8171c:	9108a35a 	add	x26, x26, #0x228
   81720:	f0000038 	adrp	x24, 88000 <__rodata_start>
   81724:	91090318 	add	x24, x24, #0x240
   81728:	a9025bf5 	stp	x21, x22, [sp, #32]
   8172c:	aa0103f6 	mov	x22, x1
   81730:	a90573fb 	stp	x27, x28, [sp, #80]
   81734:	d100043b 	sub	x27, x1, #0x1
   81738:	14000003 	b	81744 <_ZN6memory20is_dangerous_addressEPvS0_+0x54>
   8173c:	f9400273 	ldr	x19, [x19]
   81740:	b4000613 	cbz	x19, 81800 <_ZN6memory20is_dangerous_addressEPvS0_+0x110>
   81744:	eb1302df 	cmp	x22, x19
   81748:	54ffffa9 	b.ls	8173c <_ZN6memory20is_dangerous_addressEPvS0_+0x4c>  // b.plast
   8174c:	b9401260 	ldr	w0, [x19, #16]
   81750:	91005275 	add	x21, x19, #0x14
   81754:	8b0002a1 	add	x1, x21, x0
   81758:	eb0102ff 	cmp	x23, x1
   8175c:	54ffff02 	b.cs	8173c <_ZN6memory20is_dangerous_addressEPvS0_+0x4c>  // b.hs, b.nlast
   81760:	f941f33c 	ldr	x28, [x25, #992]
   81764:	d1000400 	sub	x0, x0, #0x1
   81768:	8b0002b5 	add	x21, x21, x0
   8176c:	b9400380 	ldr	w0, [x28]
   81770:	34000140 	cbz	w0, 81798 <_ZN6memory20is_dangerous_addressEPvS0_+0xa8>
   81774:	52800014 	mov	w20, #0x0                   	// #0
   81778:	52800400 	mov	w0, #0x20                  	// #32
   8177c:	94000f6d 	bl	85530 <_ZN5stdio4putcEc>
   81780:	52800400 	mov	w0, #0x20                  	// #32
   81784:	94000f6b 	bl	85530 <_ZN5stdio4putcEc>
   81788:	b9400382 	ldr	w2, [x28]
   8178c:	11000694 	add	w20, w20, #0x1
   81790:	6b14005f 	cmp	w2, w20
   81794:	54ffff28 	b.hi	81778 <_ZN6memory20is_dangerous_addressEPvS0_+0x88>  // b.pmore
   81798:	aa1a03e0 	mov	x0, x26
   8179c:	94000f71 	bl	85560 <_ZN5stdio4putsEPKc>
   817a0:	aa1703e0 	mov	x0, x23
   817a4:	94001353 	bl	864f0 <_Z9to_stringPv>
   817a8:	94000f6e 	bl	85560 <_ZN5stdio4putsEPKc>
   817ac:	aa1803e0 	mov	x0, x24
   817b0:	94000f6c 	bl	85560 <_ZN5stdio4putsEPKc>
   817b4:	aa1b03e0 	mov	x0, x27
   817b8:	9400134e 	bl	864f0 <_Z9to_stringPv>
   817bc:	94000f69 	bl	85560 <_ZN5stdio4putsEPKc>
   817c0:	f0000020 	adrp	x0, 88000 <__rodata_start>
   817c4:	91092000 	add	x0, x0, #0x248
   817c8:	94000f66 	bl	85560 <_ZN5stdio4putsEPKc>
   817cc:	aa1303e0 	mov	x0, x19
   817d0:	94001348 	bl	864f0 <_Z9to_stringPv>
   817d4:	94000f63 	bl	85560 <_ZN5stdio4putsEPKc>
   817d8:	aa1803e0 	mov	x0, x24
   817dc:	94000f61 	bl	85560 <_ZN5stdio4putsEPKc>
   817e0:	aa1503e0 	mov	x0, x21
   817e4:	94001343 	bl	864f0 <_Z9to_stringPv>
   817e8:	94000f5e 	bl	85560 <_ZN5stdio4putsEPKc>
   817ec:	f0000020 	adrp	x0, 88000 <__rodata_start>
   817f0:	91138000 	add	x0, x0, #0x4e0
   817f4:	94000f5b 	bl	85560 <_ZN5stdio4putsEPKc>
   817f8:	f9400273 	ldr	x19, [x19]
   817fc:	b5fffa53 	cbnz	x19, 81744 <_ZN6memory20is_dangerous_addressEPvS0_+0x54>
   81800:	a9425bf5 	ldp	x21, x22, [sp, #32]
   81804:	a94573fb 	ldp	x27, x28, [sp, #80]
   81808:	a94153f3 	ldp	x19, x20, [sp, #16]
   8180c:	a94363f7 	ldp	x23, x24, [sp, #48]
   81810:	a9446bf9 	ldp	x25, x26, [sp, #64]
   81814:	a8c67bfd 	ldp	x29, x30, [sp], #96
   81818:	d65f03c0 	ret
   8181c:	d503201f 	nop

0000000000081820 <_ZN6memory7kmallocEm>:
   81820:	a9ba7bfd 	stp	x29, x30, [sp, #-96]!
   81824:	910003fd 	mov	x29, sp
   81828:	a90363f7 	stp	x23, x24, [sp, #48]
   8182c:	f0000257 	adrp	x23, cc000 <_ZN10graphics2d4font12_GLOBAL__N_110bufferDataE+0x20c78>
   81830:	f9413ee1 	ldr	x1, [x23, #632]
   81834:	a90153f3 	stp	x19, x20, [sp, #16]
   81838:	a9025bf5 	stp	x21, x22, [sp, #32]
   8183c:	aa0003f5 	mov	x21, x0
   81840:	52800020 	mov	w0, #0x1                   	// #1
   81844:	a9046bf9 	stp	x25, x26, [sp, #64]
   81848:	940013a6 	bl	866e0 <__aarch64_ldadd4_acq_rel>
   8184c:	35000040 	cbnz	w0, 81854 <_ZN6memory7kmallocEm+0x34>
   81850:	d50342df 	msr	daifset, #0x2
   81854:	f94196f3 	ldr	x19, [x23, #808]
   81858:	91002273 	add	x19, x19, #0x8
   8185c:	d503201f 	nop
   81860:	aa1303e1 	mov	x1, x19
   81864:	52800020 	mov	w0, #0x1                   	// #1
   81868:	94001392 	bl	866b0 <__aarch64_swp1_acq>
   8186c:	72001c1f 	tst	w0, #0xff
   81870:	54ffff81 	b.ne	81860 <_ZN6memory7kmallocEm+0x40>  // b.any
   81874:	f9417ef3 	ldr	x19, [x23, #760]
   81878:	f9400260 	ldr	x0, [x19]
   8187c:	eb0002bf 	cmp	x21, x0
   81880:	54001268 	b.hi	81acc <_ZN6memory7kmallocEm+0x2ac>  // b.pmore
   81884:	d2820266 	mov	x6, #0x1013                	// #4115
   81888:	8b0602a0 	add	x0, x21, x6
   8188c:	f9002bfb 	str	x27, [sp, #80]
   81890:	d34cfc00 	lsr	x0, x0, #12
   81894:	2a0003f9 	mov	w25, w0
   81898:	53144c00 	lsl	w0, w0, #12
   8189c:	5100501a 	sub	w26, w0, #0x14
   818a0:	aa1a03f6 	mov	x22, x26
   818a4:	f9417ef4 	ldr	x20, [x23, #760]
   818a8:	910052b8 	add	x24, x21, #0x14
   818ac:	5281fd9b 	mov	w27, #0xfec                 	// #4076
   818b0:	aa1503e1 	mov	x1, x21
   818b4:	aa1403e0 	mov	x0, x20
   818b8:	9400189a 	bl	87b20 <_ZN10MemoryPoolILj4EE6mallocEm>
   818bc:	aa0003f3 	mov	x19, x0
   818c0:	b40002c0 	cbz	x0, 81918 <_ZN6memory7kmallocEm+0xf8>
   818c4:	f9402bfb 	ldr	x27, [sp, #80]
   818c8:	d10006a1 	sub	x1, x21, #0x1
   818cc:	aa1303e0 	mov	x0, x19
   818d0:	8b010261 	add	x1, x19, x1
   818d4:	97ffff87 	bl	816f0 <_ZN6memory20is_dangerous_addressEPvS0_>
   818d8:	f94196e0 	ldr	x0, [x23, #808]
   818dc:	91002000 	add	x0, x0, #0x8
   818e0:	089ffc1f 	stlrb	wzr, [x0]
   818e4:	f9413ee1 	ldr	x1, [x23, #632]
   818e8:	12800000 	mov	w0, #0xffffffff            	// #-1
   818ec:	9400137d 	bl	866e0 <__aarch64_ldadd4_acq_rel>
   818f0:	7100041f 	cmp	w0, #0x1
   818f4:	54000041 	b.ne	818fc <_ZN6memory7kmallocEm+0xdc>  // b.any
   818f8:	d50342ff 	msr	daifclr, #0x2
   818fc:	aa1303e0 	mov	x0, x19
   81900:	a94153f3 	ldp	x19, x20, [sp, #16]
   81904:	a9425bf5 	ldp	x21, x22, [sp, #32]
   81908:	a94363f7 	ldp	x23, x24, [sp, #48]
   8190c:	a9446bf9 	ldp	x25, x26, [sp, #64]
   81910:	a8c67bfd 	ldp	x29, x30, [sp], #96
   81914:	d65f03c0 	ret
   81918:	f13fff1f 	cmp	x24, #0xfff
   8191c:	540005a9 	b.ls	819d0 <_ZN6memory7kmallocEm+0x1b0>  // b.plast
   81920:	2a1903e0 	mov	w0, w25
   81924:	97fffe5b 	bl	81290 <_ZN6memory15_allocate_pagesEj>
   81928:	b4000780 	cbz	x0, 81a18 <_ZN6memory7kmallocEm+0x1f8>
   8192c:	f9400c03 	ldr	x3, [x0, #24]
   81930:	f9400281 	ldr	x1, [x20]
   81934:	f9400e80 	ldr	x0, [x20, #24]
   81938:	a9007c7f 	stp	xzr, xzr, [x3]
   8193c:	8b1a0021 	add	x1, x1, x26
   81940:	f9000281 	str	x1, [x20]
   81944:	b9001076 	str	w22, [x3, #16]
   81948:	b4000ae0 	cbz	x0, 81aa4 <_ZN6memory7kmallocEm+0x284>
   8194c:	713ffedf 	cmp	w22, #0xfff
   81950:	54000209 	b.ls	81990 <_ZN6memory7kmallocEm+0x170>  // b.plast
   81954:	f9401281 	ldr	x1, [x20, #32]
   81958:	b5000081 	cbnz	x1, 81968 <_ZN6memory7kmallocEm+0x148>
   8195c:	140000c4 	b	81c6c <_ZN6memory7kmallocEm+0x44c>
   81960:	f9400421 	ldr	x1, [x1, #8]
   81964:	b40017a1 	cbz	x1, 81c58 <_ZN6memory7kmallocEm+0x438>
   81968:	b9401022 	ldr	w2, [x1, #16]
   8196c:	6b16005f 	cmp	w2, w22
   81970:	54ffff88 	b.hi	81960 <_ZN6memory7kmallocEm+0x140>  // b.pmore
   81974:	f9400020 	ldr	x0, [x1]
   81978:	a9000460 	stp	x0, x1, [x3]
   8197c:	f9000023 	str	x3, [x1]
   81980:	f9400060 	ldr	x0, [x3]
   81984:	b4001640 	cbz	x0, 81c4c <_ZN6memory7kmallocEm+0x42c>
   81988:	f9000403 	str	x3, [x0, #8]
   8198c:	14000041 	b	81a90 <_ZN6memory7kmallocEm+0x270>
   81990:	b9401001 	ldr	w1, [x0, #16]
   81994:	6b16003f 	cmp	w1, w22
   81998:	54000702 	b.cs	81a78 <_ZN6memory7kmallocEm+0x258>  // b.hs, b.nlast
   8199c:	f9400000 	ldr	x0, [x0]
   819a0:	b5ffff80 	cbnz	x0, 81990 <_ZN6memory7kmallocEm+0x170>
   819a4:	f9417ee0 	ldr	x0, [x23, #760]
   819a8:	f9401001 	ldr	x1, [x0, #32]
   819ac:	b4000041 	cbz	x1, 819b4 <_ZN6memory7kmallocEm+0x194>
   819b0:	f9000023 	str	x3, [x1]
   819b4:	f9417ee0 	ldr	x0, [x23, #760]
   819b8:	a900047f 	stp	xzr, x1, [x3]
   819bc:	b9402801 	ldr	w1, [x0, #40]
   819c0:	f9001003 	str	x3, [x0, #32]
   819c4:	11000421 	add	w1, w1, #0x1
   819c8:	b9002801 	str	w1, [x0, #40]
   819cc:	17ffffb9 	b	818b0 <_ZN6memory7kmallocEm+0x90>
   819d0:	97fffdf0 	bl	81190 <_ZN6memory14_allocate_pageEv>
   819d4:	b4000220 	cbz	x0, 81a18 <_ZN6memory7kmallocEm+0x1f8>
   819d8:	f9400c03 	ldr	x3, [x0, #24]
   819dc:	f9400281 	ldr	x1, [x20]
   819e0:	f9400e80 	ldr	x0, [x20, #24]
   819e4:	a9007c7f 	stp	xzr, xzr, [x3]
   819e8:	913fb021 	add	x1, x1, #0xfec
   819ec:	f9000281 	str	x1, [x20]
   819f0:	b900107b 	str	w27, [x3, #16]
   819f4:	b4000580 	cbz	x0, 81aa4 <_ZN6memory7kmallocEm+0x284>
   819f8:	b9401001 	ldr	w1, [x0, #16]
   819fc:	713fac3f 	cmp	w1, #0xfeb
   81a00:	540003c8 	b.hi	81a78 <_ZN6memory7kmallocEm+0x258>  // b.pmore
   81a04:	f9400000 	ldr	x0, [x0]
   81a08:	b5ffff80 	cbnz	x0, 819f8 <_ZN6memory7kmallocEm+0x1d8>
   81a0c:	f9401281 	ldr	x1, [x20, #32]
   81a10:	b5fffd01 	cbnz	x1, 819b0 <_ZN6memory7kmallocEm+0x190>
   81a14:	17ffffe8 	b	819b4 <_ZN6memory7kmallocEm+0x194>
   81a18:	f9402bfb 	ldr	x27, [sp, #80]
   81a1c:	f941f2f4 	ldr	x20, [x23, #992]
   81a20:	b9400280 	ldr	w0, [x20]
   81a24:	34000140 	cbz	w0, 81a4c <_ZN6memory7kmallocEm+0x22c>
   81a28:	52800013 	mov	w19, #0x0                   	// #0
   81a2c:	52800400 	mov	w0, #0x20                  	// #32
   81a30:	94000ec0 	bl	85530 <_ZN5stdio4putcEc>
   81a34:	52800400 	mov	w0, #0x20                  	// #32
   81a38:	94000ebe 	bl	85530 <_ZN5stdio4putcEc>
   81a3c:	b9400280 	ldr	w0, [x20]
   81a40:	11000673 	add	w19, w19, #0x1
   81a44:	6b13001f 	cmp	w0, w19
   81a48:	54ffff28 	b.hi	81a2c <_ZN6memory7kmallocEm+0x20c>  // b.pmore
   81a4c:	f0000020 	adrp	x0, 88000 <__rodata_start>
   81a50:	91098000 	add	x0, x0, #0x260
   81a54:	94000ec3 	bl	85560 <_ZN5stdio4putsEPKc>
   81a58:	d2800013 	mov	x19, #0x0                   	// #0
   81a5c:	aa1503e0 	mov	x0, x21
   81a60:	94001274 	bl	86430 <_Z9to_stringm>
   81a64:	94000ebf 	bl	85560 <_ZN5stdio4putsEPKc>
   81a68:	f0000020 	adrp	x0, 88000 <__rodata_start>
   81a6c:	910a2000 	add	x0, x0, #0x288
   81a70:	94000ebc 	bl	85560 <_ZN5stdio4putsEPKc>
   81a74:	17ffff95 	b	818c8 <_ZN6memory7kmallocEm+0xa8>
   81a78:	f9400401 	ldr	x1, [x0, #8]
   81a7c:	a9000460 	stp	x0, x1, [x3]
   81a80:	f9000403 	str	x3, [x0, #8]
   81a84:	f9400460 	ldr	x0, [x3, #8]
   81a88:	b4000bc0 	cbz	x0, 81c00 <_ZN6memory7kmallocEm+0x3e0>
   81a8c:	f9000003 	str	x3, [x0]
   81a90:	f9417ee1 	ldr	x1, [x23, #760]
   81a94:	b9402820 	ldr	w0, [x1, #40]
   81a98:	11000400 	add	w0, w0, #0x1
   81a9c:	b9002820 	str	w0, [x1, #40]
   81aa0:	17ffff84 	b	818b0 <_ZN6memory7kmallocEm+0x90>
   81aa4:	f9401281 	ldr	x1, [x20, #32]
   81aa8:	b4000041 	cbz	x1, 81ab0 <_ZN6memory7kmallocEm+0x290>
   81aac:	f9000023 	str	x3, [x1]
   81ab0:	f9417ee0 	ldr	x0, [x23, #760]
   81ab4:	a900047f 	stp	xzr, x1, [x3]
   81ab8:	b9402801 	ldr	w1, [x0, #40]
   81abc:	a9018c03 	stp	x3, x3, [x0, #24]
   81ac0:	11000421 	add	w1, w1, #0x1
   81ac4:	b9002801 	str	w1, [x0, #40]
   81ac8:	17ffff7a 	b	818b0 <_ZN6memory7kmallocEm+0x90>
   81acc:	910052a0 	add	x0, x21, #0x14
   81ad0:	f13ffc1f 	cmp	x0, #0xfff
   81ad4:	54000529 	b.ls	81b78 <_ZN6memory7kmallocEm+0x358>  // b.plast
   81ad8:	d2820265 	mov	x5, #0x1013                	// #4115
   81adc:	8b0502b4 	add	x20, x21, x5
   81ae0:	d34cfe94 	lsr	x20, x20, #12
   81ae4:	2a1403e0 	mov	w0, w20
   81ae8:	2a1403f9 	mov	w25, w20
   81aec:	97fffde9 	bl	81290 <_ZN6memory15_allocate_pagesEj>
   81af0:	b4fff960 	cbz	x0, 81a1c <_ZN6memory7kmallocEm+0x1fc>
   81af4:	f9400c03 	ldr	x3, [x0, #24]
   81af8:	53144e94 	lsl	w20, w20, #12
   81afc:	f9400261 	ldr	x1, [x19]
   81b00:	5100529a 	sub	w26, w20, #0x14
   81b04:	f9400e60 	ldr	x0, [x19, #24]
   81b08:	f9002bfb 	str	x27, [sp, #80]
   81b0c:	a9007c7f 	stp	xzr, xzr, [x3]
   81b10:	8b1a0021 	add	x1, x1, x26
   81b14:	aa1a03f6 	mov	x22, x26
   81b18:	f9000261 	str	x1, [x19]
   81b1c:	b900107a 	str	w26, [x3, #16]
   81b20:	b4000e00 	cbz	x0, 81ce0 <_ZN6memory7kmallocEm+0x4c0>
   81b24:	713fff5f 	cmp	w26, #0xfff
   81b28:	54000729 	b.ls	81c0c <_ZN6memory7kmallocEm+0x3ec>  // b.plast
   81b2c:	f9401261 	ldr	x1, [x19, #32]
   81b30:	b5000081 	cbnz	x1, 81b40 <_ZN6memory7kmallocEm+0x320>
   81b34:	14000093 	b	81d80 <_ZN6memory7kmallocEm+0x560>
   81b38:	f9400421 	ldr	x1, [x1, #8]
   81b3c:	b4001181 	cbz	x1, 81d6c <_ZN6memory7kmallocEm+0x54c>
   81b40:	b9401022 	ldr	w2, [x1, #16]
   81b44:	6b0202df 	cmp	w22, w2
   81b48:	54ffff83 	b.cc	81b38 <_ZN6memory7kmallocEm+0x318>  // b.lo, b.ul, b.last
   81b4c:	f9400020 	ldr	x0, [x1]
   81b50:	a9000460 	stp	x0, x1, [x3]
   81b54:	f9000023 	str	x3, [x1]
   81b58:	f9400060 	ldr	x0, [x3]
   81b5c:	b4000f60 	cbz	x0, 81d48 <_ZN6memory7kmallocEm+0x528>
   81b60:	f9000403 	str	x3, [x0, #8]
   81b64:	f9417ee1 	ldr	x1, [x23, #760]
   81b68:	b9402820 	ldr	w0, [x1, #40]
   81b6c:	11000400 	add	w0, w0, #0x1
   81b70:	b9002820 	str	w0, [x1, #40]
   81b74:	17ffff4c 	b	818a4 <_ZN6memory7kmallocEm+0x84>
   81b78:	97fffd86 	bl	81190 <_ZN6memory14_allocate_pageEv>
   81b7c:	b4fff500 	cbz	x0, 81a1c <_ZN6memory7kmallocEm+0x1fc>
   81b80:	f9400c03 	ldr	x3, [x0, #24]
   81b84:	5281fd82 	mov	w2, #0xfec                 	// #4076
   81b88:	f9400261 	ldr	x1, [x19]
   81b8c:	f9400e60 	ldr	x0, [x19, #24]
   81b90:	f9002bfb 	str	x27, [sp, #80]
   81b94:	a9007c7f 	stp	xzr, xzr, [x3]
   81b98:	913fb021 	add	x1, x1, #0xfec
   81b9c:	f9000261 	str	x1, [x19]
   81ba0:	b9001062 	str	w2, [x3, #16]
   81ba4:	b4000b20 	cbz	x0, 81d08 <_ZN6memory7kmallocEm+0x4e8>
   81ba8:	b9401001 	ldr	w1, [x0, #16]
   81bac:	713fac3f 	cmp	w1, #0xfeb
   81bb0:	54000668 	b.hi	81c7c <_ZN6memory7kmallocEm+0x45c>  // b.pmore
   81bb4:	f9400000 	ldr	x0, [x0]
   81bb8:	b5ffff80 	cbnz	x0, 81ba8 <_ZN6memory7kmallocEm+0x388>
   81bbc:	f9417ee0 	ldr	x0, [x23, #760]
   81bc0:	f9401000 	ldr	x0, [x0, #32]
   81bc4:	b4000040 	cbz	x0, 81bcc <_ZN6memory7kmallocEm+0x3ac>
   81bc8:	f9000003 	str	x3, [x0]
   81bcc:	d2820261 	mov	x1, #0x1013                	// #4115
   81bd0:	8b0102b9 	add	x25, x21, x1
   81bd4:	f9417ee1 	ldr	x1, [x23, #760]
   81bd8:	d34cff39 	lsr	x25, x25, #12
   81bdc:	a900007f 	stp	xzr, x0, [x3]
   81be0:	53144f36 	lsl	w22, w25, #12
   81be4:	b9402820 	ldr	w0, [x1, #40]
   81be8:	510052da 	sub	w26, w22, #0x14
   81bec:	aa1a03f6 	mov	x22, x26
   81bf0:	f9001023 	str	x3, [x1, #32]
   81bf4:	11000400 	add	w0, w0, #0x1
   81bf8:	b9002820 	str	w0, [x1, #40]
   81bfc:	17ffff2a 	b	818a4 <_ZN6memory7kmallocEm+0x84>
   81c00:	f9417ee0 	ldr	x0, [x23, #760]
   81c04:	f9000c03 	str	x3, [x0, #24]
   81c08:	17ffffa2 	b	81a90 <_ZN6memory7kmallocEm+0x270>
   81c0c:	b9401001 	ldr	w1, [x0, #16]
   81c10:	6b0102df 	cmp	w22, w1
   81c14:	54000589 	b.ls	81cc4 <_ZN6memory7kmallocEm+0x4a4>  // b.plast
   81c18:	f9400000 	ldr	x0, [x0]
   81c1c:	b5ffff80 	cbnz	x0, 81c0c <_ZN6memory7kmallocEm+0x3ec>
   81c20:	f9417ee0 	ldr	x0, [x23, #760]
   81c24:	f9401000 	ldr	x0, [x0, #32]
   81c28:	b4000040 	cbz	x0, 81c30 <_ZN6memory7kmallocEm+0x410>
   81c2c:	f9000003 	str	x3, [x0]
   81c30:	f9417ee1 	ldr	x1, [x23, #760]
   81c34:	a900007f 	stp	xzr, x0, [x3]
   81c38:	b9402820 	ldr	w0, [x1, #40]
   81c3c:	f9001023 	str	x3, [x1, #32]
   81c40:	11000400 	add	w0, w0, #0x1
   81c44:	b9002820 	str	w0, [x1, #40]
   81c48:	17ffff17 	b	818a4 <_ZN6memory7kmallocEm+0x84>
   81c4c:	f9417ee0 	ldr	x0, [x23, #760]
   81c50:	f9001003 	str	x3, [x0, #32]
   81c54:	17ffff8f 	b	81a90 <_ZN6memory7kmallocEm+0x270>
   81c58:	f9417ee1 	ldr	x1, [x23, #760]
   81c5c:	f9000403 	str	x3, [x0, #8]
   81c60:	a9007c60 	stp	x0, xzr, [x3]
   81c64:	f9000c23 	str	x3, [x1, #24]
   81c68:	17ffff8a 	b	81a90 <_ZN6memory7kmallocEm+0x270>
   81c6c:	f9000403 	str	x3, [x0, #8]
   81c70:	a9007c60 	stp	x0, xzr, [x3]
   81c74:	a9018e83 	stp	x3, x3, [x20, #24]
   81c78:	17ffff86 	b	81a90 <_ZN6memory7kmallocEm+0x270>
   81c7c:	f9400401 	ldr	x1, [x0, #8]
   81c80:	a9000460 	stp	x0, x1, [x3]
   81c84:	f9000403 	str	x3, [x0, #8]
   81c88:	f9400460 	ldr	x0, [x3, #8]
   81c8c:	b40006a0 	cbz	x0, 81d60 <_ZN6memory7kmallocEm+0x540>
   81c90:	f9000003 	str	x3, [x0]
   81c94:	d2820262 	mov	x2, #0x1013                	// #4115
   81c98:	8b0202a0 	add	x0, x21, x2
   81c9c:	f9417ee2 	ldr	x2, [x23, #760]
   81ca0:	d34cfc00 	lsr	x0, x0, #12
   81ca4:	2a0003f9 	mov	w25, w0
   81ca8:	53144c00 	lsl	w0, w0, #12
   81cac:	b9402841 	ldr	w1, [x2, #40]
   81cb0:	5100501a 	sub	w26, w0, #0x14
   81cb4:	aa1a03f6 	mov	x22, x26
   81cb8:	11000420 	add	w0, w1, #0x1
   81cbc:	b9002840 	str	w0, [x2, #40]
   81cc0:	17fffef9 	b	818a4 <_ZN6memory7kmallocEm+0x84>
   81cc4:	f9400401 	ldr	x1, [x0, #8]
   81cc8:	a9000460 	stp	x0, x1, [x3]
   81ccc:	f9000403 	str	x3, [x0, #8]
   81cd0:	f9400460 	ldr	x0, [x3, #8]
   81cd4:	b4000400 	cbz	x0, 81d54 <_ZN6memory7kmallocEm+0x534>
   81cd8:	f9000003 	str	x3, [x0]
   81cdc:	17ffffa2 	b	81b64 <_ZN6memory7kmallocEm+0x344>
   81ce0:	f9401261 	ldr	x1, [x19, #32]
   81ce4:	b4000041 	cbz	x1, 81cec <_ZN6memory7kmallocEm+0x4cc>
   81ce8:	f9000023 	str	x3, [x1]
   81cec:	f9417ee0 	ldr	x0, [x23, #760]
   81cf0:	a900047f 	stp	xzr, x1, [x3]
   81cf4:	b9402801 	ldr	w1, [x0, #40]
   81cf8:	a9018c03 	stp	x3, x3, [x0, #24]
   81cfc:	11000421 	add	w1, w1, #0x1
   81d00:	b9002801 	str	w1, [x0, #40]
   81d04:	17fffee8 	b	818a4 <_ZN6memory7kmallocEm+0x84>
   81d08:	f9401261 	ldr	x1, [x19, #32]
   81d0c:	b4000041 	cbz	x1, 81d14 <_ZN6memory7kmallocEm+0x4f4>
   81d10:	f9000023 	str	x3, [x1]
   81d14:	f9417ee0 	ldr	x0, [x23, #760]
   81d18:	d2820264 	mov	x4, #0x1013                	// #4115
   81d1c:	8b0402b9 	add	x25, x21, x4
   81d20:	a900047f 	stp	xzr, x1, [x3]
   81d24:	d34cff39 	lsr	x25, x25, #12
   81d28:	b9402801 	ldr	w1, [x0, #40]
   81d2c:	a9018c03 	stp	x3, x3, [x0, #24]
   81d30:	53144f36 	lsl	w22, w25, #12
   81d34:	510052da 	sub	w26, w22, #0x14
   81d38:	11000421 	add	w1, w1, #0x1
   81d3c:	aa1a03f6 	mov	x22, x26
   81d40:	b9002801 	str	w1, [x0, #40]
   81d44:	17fffed8 	b	818a4 <_ZN6memory7kmallocEm+0x84>
   81d48:	f9417ee0 	ldr	x0, [x23, #760]
   81d4c:	f9001003 	str	x3, [x0, #32]
   81d50:	17ffff85 	b	81b64 <_ZN6memory7kmallocEm+0x344>
   81d54:	f9417ee0 	ldr	x0, [x23, #760]
   81d58:	f9000c03 	str	x3, [x0, #24]
   81d5c:	17ffff82 	b	81b64 <_ZN6memory7kmallocEm+0x344>
   81d60:	f9417ee0 	ldr	x0, [x23, #760]
   81d64:	f9000c03 	str	x3, [x0, #24]
   81d68:	17ffffcb 	b	81c94 <_ZN6memory7kmallocEm+0x474>
   81d6c:	f9417ee1 	ldr	x1, [x23, #760]
   81d70:	f9000403 	str	x3, [x0, #8]
   81d74:	a9007c60 	stp	x0, xzr, [x3]
   81d78:	f9000c23 	str	x3, [x1, #24]
   81d7c:	17ffff7a 	b	81b64 <_ZN6memory7kmallocEm+0x344>
   81d80:	f9000403 	str	x3, [x0, #8]
   81d84:	a9007c60 	stp	x0, xzr, [x3]
   81d88:	a9018e63 	stp	x3, x3, [x19, #24]
   81d8c:	17ffff76 	b	81b64 <_ZN6memory7kmallocEm+0x344>

0000000000081d90 <_ZN7ProcessC1EPKc>:
   81d90:	a9be7bfd 	stp	x29, x30, [sp, #-32]!
   81d94:	aa0003e2 	mov	x2, x0
   81d98:	d2c00403 	mov	x3, #0x2000000000          	// #137438953472
   81d9c:	910003fd 	mov	x29, sp
   81da0:	f9000bf3 	str	x19, [sp, #16]
   81da4:	aa0203f3 	mov	x19, x2
   81da8:	a9007c5f 	stp	xzr, xzr, [x2]
   81dac:	d2802000 	mov	x0, #0x100                 	// #256
   81db0:	a9010841 	stp	x1, x2, [x2, #16]
   81db4:	b900205f 	str	wzr, [x2, #32]
   81db8:	f8028e63 	str	x3, [x19, #40]!
   81dbc:	97fffe99 	bl	81820 <_ZN6memory7kmallocEm>
   81dc0:	f9000660 	str	x0, [x19, #8]
   81dc4:	f9400bf3 	ldr	x19, [sp, #16]
   81dc8:	a8c27bfd 	ldp	x29, x30, [sp], #32
   81dcc:	d65f03c0 	ret

0000000000081dd0 <_ZN7process13create_kernelEPKcPFvvE>:
   81dd0:	a9be7bfd 	stp	x29, x30, [sp, #-32]!
   81dd4:	910003fd 	mov	x29, sp
   81dd8:	a90153f3 	stp	x19, x20, [sp, #16]
   81ddc:	aa0003f4 	mov	x20, x0
   81de0:	d2800700 	mov	x0, #0x38                  	// #56
   81de4:	97fffe8f 	bl	81820 <_ZN6memory7kmallocEm>
   81de8:	aa0003f3 	mov	x19, x0
   81dec:	b4000060 	cbz	x0, 81df8 <_ZN7process13create_kernelEPKcPFvvE+0x28>
   81df0:	aa1403e1 	mov	x1, x20
   81df4:	97ffffe7 	bl	81d90 <_ZN7ProcessC1EPKc>
   81df8:	f0000240 	adrp	x0, cc000 <_ZN10graphics2d4font12_GLOBAL__N_110bufferDataE+0x20c78>
   81dfc:	f941c401 	ldr	x1, [x0, #904]
   81e00:	f9400421 	ldr	x1, [x1, #8]
   81e04:	b4000041 	cbz	x1, 81e0c <_ZN7process13create_kernelEPKcPFvvE+0x3c>
   81e08:	f9000033 	str	x19, [x1]
   81e0c:	f941c402 	ldr	x2, [x0, #904]
   81e10:	a900067f 	stp	xzr, x1, [x19]
   81e14:	f9400041 	ldr	x1, [x2]
   81e18:	f9000453 	str	x19, [x2, #8]
   81e1c:	b4000121 	cbz	x1, 81e40 <_ZN7process13create_kernelEPKcPFvvE+0x70>
   81e20:	f941c401 	ldr	x1, [x0, #904]
   81e24:	aa1303e0 	mov	x0, x19
   81e28:	a94153f3 	ldp	x19, x20, [sp, #16]
   81e2c:	b9401022 	ldr	w2, [x1, #16]
   81e30:	11000442 	add	w2, w2, #0x1
   81e34:	b9001022 	str	w2, [x1, #16]
   81e38:	a8c27bfd 	ldp	x29, x30, [sp], #32
   81e3c:	d65f03c0 	ret
   81e40:	f941c401 	ldr	x1, [x0, #904]
   81e44:	f9000053 	str	x19, [x2]
   81e48:	aa1303e0 	mov	x0, x19
   81e4c:	a94153f3 	ldp	x19, x20, [sp, #16]
   81e50:	b9401022 	ldr	w2, [x1, #16]
   81e54:	11000442 	add	w2, w2, #0x1
   81e58:	b9001022 	str	w2, [x1, #16]
   81e5c:	a8c27bfd 	ldp	x29, x30, [sp], #32
   81e60:	d65f03c0 	ret
   81e64:	d503201f 	nop
   81e68:	d503201f 	nop
   81e6c:	d503201f 	nop

0000000000081e70 <_ZN7Process13create_threadEPFvvE>:
   81e70:	a9bd7bfd 	stp	x29, x30, [sp, #-48]!
   81e74:	910003fd 	mov	x29, sp
   81e78:	a90153f3 	stp	x19, x20, [sp, #16]
   81e7c:	aa0003f4 	mov	x20, x0
   81e80:	a9025bf5 	stp	x21, x22, [sp, #32]
   81e84:	aa0103f6 	mov	x22, x1
   81e88:	94000356 	bl	82be0 <_ZN9scheduler4lockEv>
   81e8c:	97fffce1 	bl	81210 <_ZN6memory13allocate_pageEv>
   81e90:	aa0003f5 	mov	x21, x0
   81e94:	d2800a00 	mov	x0, #0x50                  	// #80
   81e98:	97fffe62 	bl	81820 <_ZN6memory7kmallocEm>
   81e9c:	aa0003f3 	mov	x19, x0
   81ea0:	b4000060 	cbz	x0, 81eac <_ZN7Process13create_threadEPFvvE+0x3c>
   81ea4:	aa1403e1 	mov	x1, x20
   81ea8:	94000142 	bl	823b0 <_ZN6ThreadC1ER7Process>
   81eac:	f0000242 	adrp	x2, cc000 <_ZN10graphics2d4font12_GLOBAL__N_110bufferDataE+0x20c78>
   81eb0:	f9400ea0 	ldr	x0, [x21, #24]
   81eb4:	f9412841 	ldr	x1, [x2, #592]
   81eb8:	913e4000 	add	x0, x0, #0xf90
   81ebc:	f9412c43 	ldr	x3, [x2, #600]
   81ec0:	a9015660 	stp	x0, x21, [x19, #16]
   81ec4:	f9400421 	ldr	x1, [x1, #8]
   81ec8:	a9065803 	stp	x3, x22, [x0, #96]
   81ecc:	3901027f 	strb	wzr, [x19, #64]
   81ed0:	b4000041 	cbz	x1, 81ed8 <_ZN7Process13create_threadEPFvvE+0x68>
   81ed4:	f9000033 	str	x19, [x1]
   81ed8:	f9412840 	ldr	x0, [x2, #592]
   81edc:	a900067f 	stp	xzr, x1, [x19]
   81ee0:	f9400001 	ldr	x1, [x0]
   81ee4:	f9000413 	str	x19, [x0, #8]
   81ee8:	b4000601 	cbz	x1, 81fa8 <_ZN7Process13create_threadEPFvvE+0x138>
   81eec:	f9412842 	ldr	x2, [x2, #592]
   81ef0:	9100a295 	add	x21, x20, #0x28
   81ef4:	b9402a81 	ldr	w1, [x20, #40]
   81ef8:	b94006a4 	ldr	w4, [x21, #4]
   81efc:	b9401040 	ldr	w0, [x2, #16]
   81f00:	11000423 	add	w3, w1, #0x1
   81f04:	6b04007f 	cmp	w3, w4
   81f08:	11000400 	add	w0, w0, #0x1
   81f0c:	b9001040 	str	w0, [x2, #16]
   81f10:	54000142 	b.cs	81f38 <_ZN7Process13create_threadEPFvvE+0xc8>  // b.hs, b.nlast
   81f14:	f94006b6 	ldr	x22, [x21, #8]
   81f18:	b9002a83 	str	w3, [x20, #40]
   81f1c:	f8215ad3 	str	x19, [x22, w1, uxtw #3]
   81f20:	94000338 	bl	82c00 <_ZN9scheduler6unlockEv>
   81f24:	aa1303e0 	mov	x0, x19
   81f28:	a94153f3 	ldp	x19, x20, [sp, #16]
   81f2c:	a9425bf5 	ldp	x21, x22, [sp, #32]
   81f30:	a8c37bfd 	ldp	x29, x30, [sp], #48
   81f34:	d65f03c0 	ret
   81f38:	7100003f 	cmp	w1, #0x0
   81f3c:	0b440480 	add	w0, w4, w4, lsr #1
   81f40:	1a9f1422 	csinc	w2, w1, wzr, ne  // ne = any
   81f44:	6b02001f 	cmp	w0, w2
   81f48:	1a822000 	csel	w0, w0, w2, cs  // cs = hs, nlast
   81f4c:	6b00009f 	cmp	w4, w0
   81f50:	54fffe20 	b.eq	81f14 <_ZN7Process13create_threadEPFvvE+0xa4>  // b.none
   81f54:	b90006a0 	str	w0, [x21, #4]
   81f58:	d37d7c00 	ubfiz	x0, x0, #3, #32
   81f5c:	97fffe31 	bl	81820 <_ZN6memory7kmallocEm>
   81f60:	aa0003f6 	mov	x22, x0
   81f64:	b9402a82 	ldr	w2, [x20, #40]
   81f68:	f94006a1 	ldr	x1, [x21, #8]
   81f6c:	940010bd 	bl	86260 <_Z6memcpyPvS_i>
   81f70:	f94006a0 	ldr	x0, [x21, #8]
   81f74:	b4000040 	cbz	x0, 81f7c <_ZN7Process13create_threadEPFvvE+0x10c>
   81f78:	97fffd66 	bl	81510 <_ZN6memory5kfreeEPv>
   81f7c:	b9402a81 	ldr	w1, [x20, #40]
   81f80:	f90006b6 	str	x22, [x21, #8]
   81f84:	11000423 	add	w3, w1, #0x1
   81f88:	b9002a83 	str	w3, [x20, #40]
   81f8c:	f8215ad3 	str	x19, [x22, w1, uxtw #3]
   81f90:	9400031c 	bl	82c00 <_ZN9scheduler6unlockEv>
   81f94:	aa1303e0 	mov	x0, x19
   81f98:	a94153f3 	ldp	x19, x20, [sp, #16]
   81f9c:	a9425bf5 	ldp	x21, x22, [sp, #32]
   81fa0:	a8c37bfd 	ldp	x29, x30, [sp], #48
   81fa4:	d65f03c0 	ret
   81fa8:	f9000013 	str	x19, [x0]
   81fac:	17ffffd0 	b	81eec <_ZN7Process13create_threadEPFvvE+0x7c>

0000000000081fb0 <_ZN10ProcessLog4putcEc>:
   81fb0:	2a0103e0 	mov	w0, w1
   81fb4:	14000d5f 	b	85530 <_ZN5stdio4putcEc>
   81fb8:	d503201f 	nop
   81fbc:	d503201f 	nop

0000000000081fc0 <_ZN10ProcessLog4putsEPKc>:
   81fc0:	aa0103e0 	mov	x0, x1
   81fc4:	14000d67 	b	85560 <_ZN5stdio4putsEPKc>
   81fc8:	d503201f 	nop
   81fcc:	d503201f 	nop

0000000000081fd0 <_ZN10ProcessLog12_print_startE14ProcessLogType>:
   81fd0:	a9be7bfd 	stp	x29, x30, [sp, #-32]!
   81fd4:	910003fd 	mov	x29, sp
   81fd8:	a90153f3 	stp	x19, x20, [sp, #16]
   81fdc:	aa0003f3 	mov	x19, x0
   81fe0:	2a0103f4 	mov	w20, w1
   81fe4:	52800141 	mov	w1, #0xa                   	// #10
   81fe8:	97fffff2 	bl	81fb0 <_ZN10ProcessLog4putcEc>
   81fec:	f9400261 	ldr	x1, [x19]
   81ff0:	aa1303e0 	mov	x0, x19
   81ff4:	f9400821 	ldr	x1, [x1, #16]
   81ff8:	97fffff2 	bl	81fc0 <_ZN10ProcessLog4putsEPKc>
   81ffc:	71000a9f 	cmp	w20, #0x2
   82000:	54000460 	b.eq	8208c <_ZN10ProcessLog12_print_startE14ProcessLogType+0xbc>  // b.none
   82004:	5400034d 	b.le	8206c <_ZN10ProcessLog12_print_startE14ProcessLogType+0x9c>
   82008:	71000e9f 	cmp	w20, #0x3
   8200c:	540004a0 	b.eq	820a0 <_ZN10ProcessLog12_print_startE14ProcessLogType+0xd0>  // b.none
   82010:	7100129f 	cmp	w20, #0x4
   82014:	540000a1 	b.ne	82028 <_ZN10ProcessLog12_print_startE14ProcessLogType+0x58>  // b.any
   82018:	d0000021 	adrp	x1, 88000 <__rodata_start>
   8201c:	910b0021 	add	x1, x1, #0x2c0
   82020:	aa1303e0 	mov	x0, x19
   82024:	97ffffe7 	bl	81fc0 <_ZN10ProcessLog4putsEPKc>
   82028:	b9400a60 	ldr	w0, [x19, #8]
   8202c:	340001a0 	cbz	w0, 82060 <_ZN10ProcessLog12_print_startE14ProcessLogType+0x90>
   82030:	52800014 	mov	w20, #0x0                   	// #0
   82034:	d503201f 	nop
   82038:	aa1303e0 	mov	x0, x19
   8203c:	52800401 	mov	w1, #0x20                  	// #32
   82040:	97ffffdc 	bl	81fb0 <_ZN10ProcessLog4putcEc>
   82044:	11000694 	add	w20, w20, #0x1
   82048:	aa1303e0 	mov	x0, x19
   8204c:	52800401 	mov	w1, #0x20                  	// #32
   82050:	97ffffd8 	bl	81fb0 <_ZN10ProcessLog4putcEc>
   82054:	b9400a60 	ldr	w0, [x19, #8]
   82058:	6b14001f 	cmp	w0, w20
   8205c:	54fffee8 	b.hi	82038 <_ZN10ProcessLog12_print_startE14ProcessLogType+0x68>  // b.pmore
   82060:	a94153f3 	ldp	x19, x20, [sp, #16]
   82064:	a8c27bfd 	ldp	x29, x30, [sp], #32
   82068:	d65f03c0 	ret
   8206c:	34000254 	cbz	w20, 820b4 <_ZN10ProcessLog12_print_startE14ProcessLogType+0xe4>
   82070:	7100069f 	cmp	w20, #0x1
   82074:	54fffda1 	b.ne	82028 <_ZN10ProcessLog12_print_startE14ProcessLogType+0x58>  // b.any
   82078:	aa1303e0 	mov	x0, x19
   8207c:	d0000021 	adrp	x1, 88000 <__rodata_start>
   82080:	910aa021 	add	x1, x1, #0x2a8
   82084:	97ffffcf 	bl	81fc0 <_ZN10ProcessLog4putsEPKc>
   82088:	17ffffe8 	b	82028 <_ZN10ProcessLog12_print_startE14ProcessLogType+0x58>
   8208c:	aa1303e0 	mov	x0, x19
   82090:	d0000021 	adrp	x1, 88000 <__rodata_start>
   82094:	910ac021 	add	x1, x1, #0x2b0
   82098:	97ffffca 	bl	81fc0 <_ZN10ProcessLog4putsEPKc>
   8209c:	17ffffe3 	b	82028 <_ZN10ProcessLog12_print_startE14ProcessLogType+0x58>
   820a0:	aa1303e0 	mov	x0, x19
   820a4:	d0000021 	adrp	x1, 88000 <__rodata_start>
   820a8:	910ae021 	add	x1, x1, #0x2b8
   820ac:	97ffffc5 	bl	81fc0 <_ZN10ProcessLog4putsEPKc>
   820b0:	17ffffde 	b	82028 <_ZN10ProcessLog12_print_startE14ProcessLogType+0x58>
   820b4:	aa1303e0 	mov	x0, x19
   820b8:	d0000021 	adrp	x1, 88000 <__rodata_start>
   820bc:	910a8021 	add	x1, x1, #0x2a0
   820c0:	97ffffc0 	bl	81fc0 <_ZN10ProcessLog4putsEPKc>
   820c4:	17ffffd9 	b	82028 <_ZN10ProcessLog12_print_startE14ProcessLogType+0x58>
	...

00000000000820d0 <_ZN6thread15_cleanup_threadEv>:
   820d0:	a9bd7bfd 	stp	x29, x30, [sp, #-48]!
   820d4:	910003fd 	mov	x29, sp
   820d8:	f90013f5 	str	x21, [sp, #32]
   820dc:	d0000255 	adrp	x21, cc000 <_ZN10graphics2d4font12_GLOBAL__N_110bufferDataE+0x20c78>
   820e0:	a90153f3 	stp	x19, x20, [sp, #16]
   820e4:	940002bf 	bl	82be0 <_ZN9scheduler4lockEv>
   820e8:	52800013 	mov	w19, #0x0                   	// #0
   820ec:	f941f2b4 	ldr	x20, [x21, #992]
   820f0:	b9400280 	ldr	w0, [x20]
   820f4:	34000120 	cbz	w0, 82118 <_ZN6thread15_cleanup_threadEv+0x48>
   820f8:	52800400 	mov	w0, #0x20                  	// #32
   820fc:	94000d0d 	bl	85530 <_ZN5stdio4putcEc>
   82100:	52800400 	mov	w0, #0x20                  	// #32
   82104:	94000d0b 	bl	85530 <_ZN5stdio4putcEc>
   82108:	b9400280 	ldr	w0, [x20]
   8210c:	11000673 	add	w19, w19, #0x1
   82110:	6b13001f 	cmp	w0, w19
   82114:	54ffff28 	b.hi	820f8 <_ZN6thread15_cleanup_threadEv+0x28>  // b.pmore
   82118:	d0000020 	adrp	x0, 88000 <__rodata_start>
   8211c:	910b2000 	add	x0, x0, #0x2c8
   82120:	94000d10 	bl	85560 <_ZN5stdio4putsEPKc>
   82124:	f9419ea0 	ldr	x0, [x21, #824]
   82128:	c8dffc14 	ldar	x20, [x0]
   8212c:	f9401693 	ldr	x19, [x20, #40]
   82130:	b4000133 	cbz	x19, 82154 <_ZN6thread15_cleanup_threadEv+0x84>
   82134:	d503201f 	nop
   82138:	f9400262 	ldr	x2, [x19]
   8213c:	aa1303e0 	mov	x0, x19
   82140:	f9400e61 	ldr	x1, [x19, #24]
   82144:	f9400042 	ldr	x2, [x2]
   82148:	d63f0040 	blr	x2
   8214c:	f9400673 	ldr	x19, [x19, #8]
   82150:	b5ffff53 	cbnz	x19, 82138 <_ZN6thread15_cleanup_threadEv+0x68>
   82154:	f9412aa0 	ldr	x0, [x21, #592]
   82158:	f9400000 	ldr	x0, [x0]
   8215c:	b4000100 	cbz	x0, 8217c <_ZN6thread15_cleanup_threadEv+0xac>
   82160:	eb00029f 	cmp	x20, x0
   82164:	54000061 	b.ne	82170 <_ZN6thread15_cleanup_threadEv+0xa0>  // b.any
   82168:	1400003a 	b	82250 <_ZN6thread15_cleanup_threadEv+0x180>
   8216c:	54000720 	b.eq	82250 <_ZN6thread15_cleanup_threadEv+0x180>  // b.none
   82170:	f9400000 	ldr	x0, [x0]
   82174:	eb00029f 	cmp	x20, x0
   82178:	b5ffffa0 	cbnz	x0, 8216c <_ZN6thread15_cleanup_threadEv+0x9c>
   8217c:	f941b2a0 	ldr	x0, [x21, #864]
   82180:	f9400000 	ldr	x0, [x0]
   82184:	b4000100 	cbz	x0, 821a4 <_ZN6thread15_cleanup_threadEv+0xd4>
   82188:	eb00029f 	cmp	x20, x0
   8218c:	54000061 	b.ne	82198 <_ZN6thread15_cleanup_threadEv+0xc8>  // b.any
   82190:	14000040 	b	82290 <_ZN6thread15_cleanup_threadEv+0x1c0>
   82194:	540007e0 	b.eq	82290 <_ZN6thread15_cleanup_threadEv+0x1c0>  // b.none
   82198:	f9400000 	ldr	x0, [x0]
   8219c:	eb00029f 	cmp	x20, x0
   821a0:	b5ffffa0 	cbnz	x0, 82194 <_ZN6thread15_cleanup_threadEv+0xc4>
   821a4:	f9414aa0 	ldr	x0, [x21, #656]
   821a8:	f9400000 	ldr	x0, [x0]
   821ac:	b4000100 	cbz	x0, 821cc <_ZN6thread15_cleanup_threadEv+0xfc>
   821b0:	eb00029f 	cmp	x20, x0
   821b4:	54000061 	b.ne	821c0 <_ZN6thread15_cleanup_threadEv+0xf0>  // b.any
   821b8:	14000059 	b	8231c <_ZN6thread15_cleanup_threadEv+0x24c>
   821bc:	54000b00 	b.eq	8231c <_ZN6thread15_cleanup_threadEv+0x24c>  // b.none
   821c0:	f9400000 	ldr	x0, [x0]
   821c4:	eb00029f 	cmp	x20, x0
   821c8:	b5ffffa0 	cbnz	x0, 821bc <_ZN6thread15_cleanup_threadEv+0xec>
   821cc:	f94142a0 	ldr	x0, [x21, #640]
   821d0:	f9400000 	ldr	x0, [x0]
   821d4:	b4000100 	cbz	x0, 821f4 <_ZN6thread15_cleanup_threadEv+0x124>
   821d8:	eb00029f 	cmp	x20, x0
   821dc:	54000061 	b.ne	821e8 <_ZN6thread15_cleanup_threadEv+0x118>  // b.any
   821e0:	1400003f 	b	822dc <_ZN6thread15_cleanup_threadEv+0x20c>
   821e4:	540007c0 	b.eq	822dc <_ZN6thread15_cleanup_threadEv+0x20c>  // b.none
   821e8:	f9400000 	ldr	x0, [x0]
   821ec:	eb00029f 	cmp	x20, x0
   821f0:	b5ffffa0 	cbnz	x0, 821e4 <_ZN6thread15_cleanup_threadEv+0x114>
   821f4:	f941f2b5 	ldr	x21, [x21, #992]
   821f8:	52800013 	mov	w19, #0x0                   	// #0
   821fc:	b94002a0 	ldr	w0, [x21]
   82200:	34000140 	cbz	w0, 82228 <_ZN6thread15_cleanup_threadEv+0x158>
   82204:	d503201f 	nop
   82208:	52800400 	mov	w0, #0x20                  	// #32
   8220c:	94000cc9 	bl	85530 <_ZN5stdio4putcEc>
   82210:	52800400 	mov	w0, #0x20                  	// #32
   82214:	94000cc7 	bl	85530 <_ZN5stdio4putcEc>
   82218:	b94002a0 	ldr	w0, [x21]
   8221c:	11000673 	add	w19, w19, #0x1
   82220:	6b13001f 	cmp	w0, w19
   82224:	54ffff28 	b.hi	82208 <_ZN6thread15_cleanup_threadEv+0x138>  // b.pmore
   82228:	d0000020 	adrp	x0, 88000 <__rodata_start>
   8222c:	910b8000 	add	x0, x0, #0x2e0
   82230:	94000ccc 	bl	85560 <_ZN5stdio4putsEPKc>
   82234:	f9400e80 	ldr	x0, [x20, #24]
   82238:	97fffc96 	bl	81490 <_ZN6memory9free_pageERNS_4PageE>
   8223c:	94000271 	bl	82c00 <_ZN9scheduler6unlockEv>
   82240:	a94153f3 	ldp	x19, x20, [sp, #16]
   82244:	f94013f5 	ldr	x21, [sp, #32]
   82248:	a8c37bfd 	ldp	x29, x30, [sp], #48
   8224c:	14000281 	b	82c50 <_ZN9scheduler5yieldEv>
   82250:	a9400282 	ldp	x2, x0, [x20]
   82254:	b40008a0 	cbz	x0, 82368 <_ZN6thread15_cleanup_threadEv+0x298>
   82258:	f9000002 	str	x2, [x0]
   8225c:	b4000802 	cbz	x2, 8235c <_ZN6thread15_cleanup_threadEv+0x28c>
   82260:	f9000440 	str	x0, [x2, #8]
   82264:	f9412ab5 	ldr	x21, [x21, #592]
   82268:	b94012a0 	ldr	w0, [x21, #16]
   8226c:	51000400 	sub	w0, w0, #0x1
   82270:	b90012a0 	str	w0, [x21, #16]
   82274:	f9400e80 	ldr	x0, [x20, #24]
   82278:	97fffc86 	bl	81490 <_ZN6memory9free_pageERNS_4PageE>
   8227c:	94000261 	bl	82c00 <_ZN9scheduler6unlockEv>
   82280:	a94153f3 	ldp	x19, x20, [sp, #16]
   82284:	f94013f5 	ldr	x21, [sp, #32]
   82288:	a8c37bfd 	ldp	x29, x30, [sp], #48
   8228c:	14000271 	b	82c50 <_ZN9scheduler5yieldEv>
   82290:	a9400a80 	ldp	x0, x2, [x20]
   82294:	b40001e2 	cbz	x2, 822d0 <_ZN6thread15_cleanup_threadEv+0x200>
   82298:	f9000040 	str	x0, [x2]
   8229c:	b40006c0 	cbz	x0, 82374 <_ZN6thread15_cleanup_threadEv+0x2a4>
   822a0:	f941b2b5 	ldr	x21, [x21, #864]
   822a4:	f9000402 	str	x2, [x0, #8]
   822a8:	b94012a0 	ldr	w0, [x21, #16]
   822ac:	51000400 	sub	w0, w0, #0x1
   822b0:	b90012a0 	str	w0, [x21, #16]
   822b4:	f9400e80 	ldr	x0, [x20, #24]
   822b8:	97fffc76 	bl	81490 <_ZN6memory9free_pageERNS_4PageE>
   822bc:	94000251 	bl	82c00 <_ZN9scheduler6unlockEv>
   822c0:	a94153f3 	ldp	x19, x20, [sp, #16]
   822c4:	f94013f5 	ldr	x21, [sp, #32]
   822c8:	a8c37bfd 	ldp	x29, x30, [sp], #48
   822cc:	14000261 	b	82c50 <_ZN9scheduler5yieldEv>
   822d0:	f941b2a3 	ldr	x3, [x21, #864]
   822d4:	f9000060 	str	x0, [x3]
   822d8:	17fffff1 	b	8229c <_ZN6thread15_cleanup_threadEv+0x1cc>
   822dc:	a9400a80 	ldp	x0, x2, [x20]
   822e0:	b40004e2 	cbz	x2, 8237c <_ZN6thread15_cleanup_threadEv+0x2ac>
   822e4:	f9000040 	str	x0, [x2]
   822e8:	b40005a0 	cbz	x0, 8239c <_ZN6thread15_cleanup_threadEv+0x2cc>
   822ec:	f94142b5 	ldr	x21, [x21, #640]
   822f0:	f9000402 	str	x2, [x0, #8]
   822f4:	b94012a0 	ldr	w0, [x21, #16]
   822f8:	51000400 	sub	w0, w0, #0x1
   822fc:	b90012a0 	str	w0, [x21, #16]
   82300:	f9400e80 	ldr	x0, [x20, #24]
   82304:	97fffc63 	bl	81490 <_ZN6memory9free_pageERNS_4PageE>
   82308:	9400023e 	bl	82c00 <_ZN9scheduler6unlockEv>
   8230c:	a94153f3 	ldp	x19, x20, [sp, #16]
   82310:	f94013f5 	ldr	x21, [sp, #32]
   82314:	a8c37bfd 	ldp	x29, x30, [sp], #48
   82318:	1400024e 	b	82c50 <_ZN9scheduler5yieldEv>
   8231c:	a9400a80 	ldp	x0, x2, [x20]
   82320:	b4000382 	cbz	x2, 82390 <_ZN6thread15_cleanup_threadEv+0x2c0>
   82324:	f9000040 	str	x0, [x2]
   82328:	b4000300 	cbz	x0, 82388 <_ZN6thread15_cleanup_threadEv+0x2b8>
   8232c:	f9414ab5 	ldr	x21, [x21, #656]
   82330:	f9000402 	str	x2, [x0, #8]
   82334:	b94012a0 	ldr	w0, [x21, #16]
   82338:	51000400 	sub	w0, w0, #0x1
   8233c:	b90012a0 	str	w0, [x21, #16]
   82340:	f9400e80 	ldr	x0, [x20, #24]
   82344:	97fffc53 	bl	81490 <_ZN6memory9free_pageERNS_4PageE>
   82348:	9400022e 	bl	82c00 <_ZN9scheduler6unlockEv>
   8234c:	a94153f3 	ldp	x19, x20, [sp, #16]
   82350:	f94013f5 	ldr	x21, [sp, #32]
   82354:	a8c37bfd 	ldp	x29, x30, [sp], #48
   82358:	1400023e 	b	82c50 <_ZN9scheduler5yieldEv>
   8235c:	f9412aa2 	ldr	x2, [x21, #592]
   82360:	f9000440 	str	x0, [x2, #8]
   82364:	17ffffc0 	b	82264 <_ZN6thread15_cleanup_threadEv+0x194>
   82368:	f9412aa3 	ldr	x3, [x21, #592]
   8236c:	f9000062 	str	x2, [x3]
   82370:	17ffffbb 	b	8225c <_ZN6thread15_cleanup_threadEv+0x18c>
   82374:	f941b2a0 	ldr	x0, [x21, #864]
   82378:	17ffffca 	b	822a0 <_ZN6thread15_cleanup_threadEv+0x1d0>
   8237c:	f94142a3 	ldr	x3, [x21, #640]
   82380:	f9000060 	str	x0, [x3]
   82384:	17ffffd9 	b	822e8 <_ZN6thread15_cleanup_threadEv+0x218>
   82388:	f9414aa0 	ldr	x0, [x21, #656]
   8238c:	17ffffe8 	b	8232c <_ZN6thread15_cleanup_threadEv+0x25c>
   82390:	f9414aa3 	ldr	x3, [x21, #656]
   82394:	f9000060 	str	x0, [x3]
   82398:	17ffffe4 	b	82328 <_ZN6thread15_cleanup_threadEv+0x258>
   8239c:	f94142a0 	ldr	x0, [x21, #640]
   823a0:	17ffffd3 	b	822ec <_ZN6thread15_cleanup_threadEv+0x21c>
   823a4:	d503201f 	nop
   823a8:	d503201f 	nop
   823ac:	d503201f 	nop

00000000000823b0 <_ZN6ThreadC1ER7Process>:
   823b0:	52800043 	mov	w3, #0x2                   	// #2
   823b4:	a9007c1f 	stp	xzr, xzr, [x0]
   823b8:	a9017c1f 	stp	xzr, xzr, [x0, #16]
   823bc:	a9027c01 	stp	x1, xzr, [x0, #32]
   823c0:	f900181f 	str	xzr, [x0, #48]
   823c4:	b900381f 	str	wzr, [x0, #56]
   823c8:	39010003 	strb	w3, [x0, #64]
   823cc:	f900241f 	str	xzr, [x0, #72]
   823d0:	d65f03c0 	ret
   823d4:	d503201f 	nop
   823d8:	d503201f 	nop
   823dc:	d503201f 	nop

00000000000823e0 <_ZN6Thread5sleepEm>:
   823e0:	39410002 	ldrb	w2, [x0, #64]
   823e4:	34000042 	cbz	w2, 823ec <_ZN6Thread5sleepEm+0xc>
   823e8:	d65f03c0 	ret
   823ec:	a9bc7bfd 	stp	x29, x30, [sp, #-64]!
   823f0:	910003fd 	mov	x29, sp
   823f4:	a9025bf5 	stp	x21, x22, [sp, #32]
   823f8:	d0000255 	adrp	x21, cc000 <_ZN10graphics2d4font12_GLOBAL__N_110bufferDataE+0x20c78>
   823fc:	aa0103f6 	mov	x22, x1
   82400:	f9413ea1 	ldr	x1, [x21, #632]
   82404:	a90153f3 	stp	x19, x20, [sp, #16]
   82408:	aa0003f3 	mov	x19, x0
   8240c:	52800020 	mov	w0, #0x1                   	// #1
   82410:	f9001bf7 	str	x23, [sp, #48]
   82414:	940010b3 	bl	866e0 <__aarch64_ldadd4_acq_rel>
   82418:	35000040 	cbnz	w0, 82420 <_ZN6Thread5sleepEm+0x40>
   8241c:	d50342df 	msr	daifset, #0x2
   82420:	f9418ab4 	ldr	x20, [x21, #784]
   82424:	52800037 	mov	w23, #0x1                   	// #1
   82428:	91002294 	add	x20, x20, #0x8
   8242c:	d503201f 	nop
   82430:	aa1403e1 	mov	x1, x20
   82434:	52800020 	mov	w0, #0x1                   	// #1
   82438:	9400109e 	bl	866b0 <__aarch64_swp1_acq>
   8243c:	72001c1f 	tst	w0, #0xff
   82440:	54ffff81 	b.ne	82430 <_ZN6Thread5sleepEm+0x50>  // b.any
   82444:	39010277 	strb	w23, [x19, #64]
   82448:	94000d46 	bl	85960 <_ZN5timer3nowEv>
   8244c:	8b2042c0 	add	x0, x22, w0, uxtw
   82450:	f9400661 	ldr	x1, [x19, #8]
   82454:	f9002660 	str	x0, [x19, #72]
   82458:	b40006a1 	cbz	x1, 8252c <_ZN6Thread5sleepEm+0x14c>
   8245c:	f9400262 	ldr	x2, [x19]
   82460:	f9000022 	str	x2, [x1]
   82464:	f9400262 	ldr	x2, [x19]
   82468:	b40005c2 	cbz	x2, 82520 <_ZN6Thread5sleepEm+0x140>
   8246c:	f9412aa3 	ldr	x3, [x21, #592]
   82470:	f9000441 	str	x1, [x2, #8]
   82474:	f941b2a4 	ldr	x4, [x21, #864]
   82478:	b9401062 	ldr	w2, [x3, #16]
   8247c:	f9400081 	ldr	x1, [x4]
   82480:	51000442 	sub	w2, w2, #0x1
   82484:	b9001062 	str	w2, [x3, #16]
   82488:	b5000081 	cbnz	x1, 82498 <_ZN6Thread5sleepEm+0xb8>
   8248c:	1400001e 	b	82504 <_ZN6Thread5sleepEm+0x124>
   82490:	f9400021 	ldr	x1, [x1]
   82494:	b4000541 	cbz	x1, 8253c <_ZN6Thread5sleepEm+0x15c>
   82498:	f9402422 	ldr	x2, [x1, #72]
   8249c:	eb02001f 	cmp	x0, x2
   824a0:	54ffff82 	b.cs	82490 <_ZN6Thread5sleepEm+0xb0>  // b.hs, b.nlast
   824a4:	f9400420 	ldr	x0, [x1, #8]
   824a8:	a9000261 	stp	x1, x0, [x19]
   824ac:	f9000433 	str	x19, [x1, #8]
   824b0:	f9400660 	ldr	x0, [x19, #8]
   824b4:	b4000320 	cbz	x0, 82518 <_ZN6Thread5sleepEm+0x138>
   824b8:	f9000013 	str	x19, [x0]
   824bc:	f941b2a1 	ldr	x1, [x21, #864]
   824c0:	b9401020 	ldr	w0, [x1, #16]
   824c4:	11000400 	add	w0, w0, #0x1
   824c8:	b9001020 	str	w0, [x1, #16]
   824cc:	f9418aa0 	ldr	x0, [x21, #784]
   824d0:	91002000 	add	x0, x0, #0x8
   824d4:	089ffc1f 	stlrb	wzr, [x0]
   824d8:	f9413ea1 	ldr	x1, [x21, #632]
   824dc:	12800000 	mov	w0, #0xffffffff            	// #-1
   824e0:	94001080 	bl	866e0 <__aarch64_ldadd4_acq_rel>
   824e4:	7100041f 	cmp	w0, #0x1
   824e8:	54000041 	b.ne	824f0 <_ZN6Thread5sleepEm+0x110>  // b.any
   824ec:	d50342ff 	msr	daifclr, #0x2
   824f0:	a94153f3 	ldp	x19, x20, [sp, #16]
   824f4:	a9425bf5 	ldp	x21, x22, [sp, #32]
   824f8:	f9401bf7 	ldr	x23, [sp, #48]
   824fc:	a8c47bfd 	ldp	x29, x30, [sp], #64
   82500:	140001d4 	b	82c50 <_ZN9scheduler5yieldEv>
   82504:	f9400480 	ldr	x0, [x4, #8]
   82508:	b40002e0 	cbz	x0, 82564 <_ZN6Thread5sleepEm+0x184>
   8250c:	f9000013 	str	x19, [x0]
   82510:	a900027f 	stp	xzr, x0, [x19]
   82514:	f9000493 	str	x19, [x4, #8]
   82518:	f941b2a0 	ldr	x0, [x21, #864]
   8251c:	17ffffe7 	b	824b8 <_ZN6Thread5sleepEm+0xd8>
   82520:	f9412aa3 	ldr	x3, [x21, #592]
   82524:	aa0303e2 	mov	x2, x3
   82528:	17ffffd1 	b	8246c <_ZN6Thread5sleepEm+0x8c>
   8252c:	f9412aa3 	ldr	x3, [x21, #592]
   82530:	f9400262 	ldr	x2, [x19]
   82534:	f9000062 	str	x2, [x3]
   82538:	17ffffcc 	b	82468 <_ZN6Thread5sleepEm+0x88>
   8253c:	f941b2a1 	ldr	x1, [x21, #864]
   82540:	f9400420 	ldr	x0, [x1, #8]
   82544:	b40000a0 	cbz	x0, 82558 <_ZN6Thread5sleepEm+0x178>
   82548:	f9000013 	str	x19, [x0]
   8254c:	a900027f 	stp	xzr, x0, [x19]
   82550:	f9000433 	str	x19, [x1, #8]
   82554:	17ffffda 	b	824bc <_ZN6Thread5sleepEm+0xdc>
   82558:	a9007e7f 	stp	xzr, xzr, [x19]
   8255c:	f9000433 	str	x19, [x1, #8]
   82560:	17ffffd7 	b	824bc <_ZN6Thread5sleepEm+0xdc>
   82564:	a9007e7f 	stp	xzr, xzr, [x19]
   82568:	f941b2a0 	ldr	x0, [x21, #864]
   8256c:	f9000493 	str	x19, [x4, #8]
   82570:	17ffffd2 	b	824b8 <_ZN6Thread5sleepEm+0xd8>
   82574:	d503201f 	nop
   82578:	d503201f 	nop
   8257c:	d503201f 	nop

0000000000082580 <_ZN6Thread5pauseEv>:
   82580:	d65f03c0 	ret
   82584:	d503201f 	nop
   82588:	d503201f 	nop
   8258c:	d503201f 	nop

0000000000082590 <_ZN6Thread6resumeEv>:
   82590:	39410001 	ldrb	w1, [x0, #64]
   82594:	7100083f 	cmp	w1, #0x2
   82598:	54000040 	b.eq	825a0 <_ZN6Thread6resumeEv+0x10>  // b.none
   8259c:	d65f03c0 	ret
   825a0:	a9400803 	ldp	x3, x2, [x0]
   825a4:	d0000241 	adrp	x1, cc000 <_ZN10graphics2d4font12_GLOBAL__N_110bufferDataE+0x20c78>
   825a8:	b40002e2 	cbz	x2, 82604 <_ZN6Thread6resumeEv+0x74>
   825ac:	f9000043 	str	x3, [x2]
   825b0:	b4000343 	cbz	x3, 82618 <_ZN6Thread6resumeEv+0x88>
   825b4:	f9414825 	ldr	x5, [x1, #656]
   825b8:	f9000462 	str	x2, [x3, #8]
   825bc:	f9412823 	ldr	x3, [x1, #592]
   825c0:	3901001f 	strb	wzr, [x0, #64]
   825c4:	b94010a2 	ldr	w2, [x5, #16]
   825c8:	f9400463 	ldr	x3, [x3, #8]
   825cc:	51000442 	sub	w2, w2, #0x1
   825d0:	b90010a2 	str	w2, [x5, #16]
   825d4:	b4000043 	cbz	x3, 825dc <_ZN6Thread6resumeEv+0x4c>
   825d8:	f9000060 	str	x0, [x3]
   825dc:	f9412822 	ldr	x2, [x1, #592]
   825e0:	a9000c1f 	stp	xzr, x3, [x0]
   825e4:	f9400043 	ldr	x3, [x2]
   825e8:	f9000440 	str	x0, [x2, #8]
   825ec:	b4000123 	cbz	x3, 82610 <_ZN6Thread6resumeEv+0x80>
   825f0:	f9412822 	ldr	x2, [x1, #592]
   825f4:	b9401040 	ldr	w0, [x2, #16]
   825f8:	11000400 	add	w0, w0, #0x1
   825fc:	b9001040 	str	w0, [x2, #16]
   82600:	d65f03c0 	ret
   82604:	f9414824 	ldr	x4, [x1, #656]
   82608:	f9000083 	str	x3, [x4]
   8260c:	17ffffe9 	b	825b0 <_ZN6Thread6resumeEv+0x20>
   82610:	f9000040 	str	x0, [x2]
   82614:	17fffff7 	b	825f0 <_ZN6Thread6resumeEv+0x60>
   82618:	f9414823 	ldr	x3, [x1, #656]
   8261c:	17ffffe6 	b	825b4 <_ZN6Thread6resumeEv+0x24>

0000000000082620 <_ZN6Thread9terminateEv>:
   82620:	d0000243 	adrp	x3, cc000 <_ZN10graphics2d4font12_GLOBAL__N_110bufferDataE+0x20c78>
   82624:	f9419c61 	ldr	x1, [x3, #824]
   82628:	c8dffc22 	ldar	x2, [x1]
   8262c:	eb02001f 	cmp	x0, x2
   82630:	54000820 	b.eq	82734 <_ZN6Thread9terminateEv+0x114>  // b.none
   82634:	39410001 	ldrb	w1, [x0, #64]
   82638:	7100083f 	cmp	w1, #0x2
   8263c:	54000560 	b.eq	826e8 <_ZN6Thread9terminateEv+0xc8>  // b.none
   82640:	54000368 	b.hi	826ac <_ZN6Thread9terminateEv+0x8c>  // b.pmore
   82644:	340003e1 	cbz	w1, 826c0 <_ZN6Thread9terminateEv+0xa0>
   82648:	a9400804 	ldp	x4, x2, [x0]
   8264c:	b40006e2 	cbz	x2, 82728 <_ZN6Thread9terminateEv+0x108>
   82650:	f9000044 	str	x4, [x2]
   82654:	b4000804 	cbz	x4, 82754 <_ZN6Thread9terminateEv+0x134>
   82658:	f9000482 	str	x2, [x4, #8]
   8265c:	f941b062 	ldr	x2, [x3, #864]
   82660:	b9401041 	ldr	w1, [x2, #16]
   82664:	51000421 	sub	w1, w1, #0x1
   82668:	b9001041 	str	w1, [x2, #16]
   8266c:	f9414062 	ldr	x2, [x3, #640]
   82670:	52800061 	mov	w1, #0x3                   	// #3
   82674:	39010001 	strb	w1, [x0, #64]
   82678:	f9400441 	ldr	x1, [x2, #8]
   8267c:	b4000041 	cbz	x1, 82684 <_ZN6Thread9terminateEv+0x64>
   82680:	f9000020 	str	x0, [x1]
   82684:	f9414062 	ldr	x2, [x3, #640]
   82688:	a900041f 	stp	xzr, x1, [x0]
   8268c:	f9400041 	ldr	x1, [x2]
   82690:	f9000440 	str	x0, [x2, #8]
   82694:	b4000121 	cbz	x1, 826b8 <_ZN6Thread9terminateEv+0x98>
   82698:	f9414060 	ldr	x0, [x3, #640]
   8269c:	b9401001 	ldr	w1, [x0, #16]
   826a0:	11000421 	add	w1, w1, #0x1
   826a4:	b9001001 	str	w1, [x0, #16]
   826a8:	d65f03c0 	ret
   826ac:	71000c3f 	cmp	w1, #0x3
   826b0:	54fffde1 	b.ne	8266c <_ZN6Thread9terminateEv+0x4c>  // b.any
   826b4:	d65f03c0 	ret
   826b8:	f9000040 	str	x0, [x2]
   826bc:	17fffff7 	b	82698 <_ZN6Thread9terminateEv+0x78>
   826c0:	a9400804 	ldp	x4, x2, [x0]
   826c4:	b4000262 	cbz	x2, 82710 <_ZN6Thread9terminateEv+0xf0>
   826c8:	f9000044 	str	x4, [x2]
   826cc:	b4000384 	cbz	x4, 8273c <_ZN6Thread9terminateEv+0x11c>
   826d0:	f9000482 	str	x2, [x4, #8]
   826d4:	f9412862 	ldr	x2, [x3, #592]
   826d8:	b9401041 	ldr	w1, [x2, #16]
   826dc:	51000421 	sub	w1, w1, #0x1
   826e0:	b9001041 	str	w1, [x2, #16]
   826e4:	17ffffe2 	b	8266c <_ZN6Thread9terminateEv+0x4c>
   826e8:	a9400804 	ldp	x4, x2, [x0]
   826ec:	b4000182 	cbz	x2, 8271c <_ZN6Thread9terminateEv+0xfc>
   826f0:	f9000044 	str	x4, [x2]
   826f4:	b40002a4 	cbz	x4, 82748 <_ZN6Thread9terminateEv+0x128>
   826f8:	f9000482 	str	x2, [x4, #8]
   826fc:	f9414862 	ldr	x2, [x3, #656]
   82700:	b9401041 	ldr	w1, [x2, #16]
   82704:	51000421 	sub	w1, w1, #0x1
   82708:	b9001041 	str	w1, [x2, #16]
   8270c:	17ffffd8 	b	8266c <_ZN6Thread9terminateEv+0x4c>
   82710:	f9412865 	ldr	x5, [x3, #592]
   82714:	f90000a4 	str	x4, [x5]
   82718:	17ffffed 	b	826cc <_ZN6Thread9terminateEv+0xac>
   8271c:	f9414865 	ldr	x5, [x3, #656]
   82720:	f90000a4 	str	x4, [x5]
   82724:	17fffff4 	b	826f4 <_ZN6Thread9terminateEv+0xd4>
   82728:	f941b065 	ldr	x5, [x3, #864]
   8272c:	f90000a4 	str	x4, [x5]
   82730:	17ffffc9 	b	82654 <_ZN6Thread9terminateEv+0x34>
   82734:	c89ffc3f 	stlr	xzr, [x1]
   82738:	17ffffbf 	b	82634 <_ZN6Thread9terminateEv+0x14>
   8273c:	f9412864 	ldr	x4, [x3, #592]
   82740:	f9000482 	str	x2, [x4, #8]
   82744:	17ffffe4 	b	826d4 <_ZN6Thread9terminateEv+0xb4>
   82748:	f9414864 	ldr	x4, [x3, #656]
   8274c:	f9000482 	str	x2, [x4, #8]
   82750:	17ffffeb 	b	826fc <_ZN6Thread9terminateEv+0xdc>
   82754:	f941b064 	ldr	x4, [x3, #864]
   82758:	f9000482 	str	x2, [x4, #8]
   8275c:	17ffffc0 	b	8265c <_ZN6Thread9terminateEv+0x3c>

0000000000082760 <_ZN6kernel4arch3arm4initEv>:
   82760:	a9bd7bfd 	stp	x29, x30, [sp, #-48]!
   82764:	910003fd 	mov	x29, sp
   82768:	a90153f3 	stp	x19, x20, [sp, #16]
   8276c:	d0000254 	adrp	x20, cc000 <_ZN10graphics2d4font12_GLOBAL__N_110bufferDataE+0x20c78>
   82770:	f90013f5 	str	x21, [sp, #32]
   82774:	f941f295 	ldr	x21, [x20, #992]
   82778:	b94002a0 	ldr	w0, [x21]
   8277c:	34000160 	cbz	w0, 827a8 <_ZN6kernel4arch3arm4initEv+0x48>
   82780:	52800013 	mov	w19, #0x0                   	// #0
   82784:	d503201f 	nop
   82788:	52800400 	mov	w0, #0x20                  	// #32
   8278c:	94000b69 	bl	85530 <_ZN5stdio4putcEc>
   82790:	52800400 	mov	w0, #0x20                  	// #32
   82794:	94000b67 	bl	85530 <_ZN5stdio4putcEc>
   82798:	b94002a1 	ldr	w1, [x21]
   8279c:	11000673 	add	w19, w19, #0x1
   827a0:	6b13003f 	cmp	w1, w19
   827a4:	54ffff28 	b.hi	82788 <_ZN6kernel4arch3arm4initEv+0x28>  // b.pmore
   827a8:	d0000020 	adrp	x0, 88000 <__rodata_start>
   827ac:	910c6000 	add	x0, x0, #0x318
   827b0:	94000b6c 	bl	85560 <_ZN5stdio4putsEPKc>
   827b4:	f941f294 	ldr	x20, [x20, #992]
   827b8:	b9400280 	ldr	w0, [x20]
   827bc:	11000400 	add	w0, w0, #0x1
   827c0:	b9000280 	str	w0, [x20]
   827c4:	94000017 	bl	82820 <_ZN9scheduler4arch3arm4initEv>
   827c8:	b9400280 	ldr	w0, [x20]
   827cc:	51000400 	sub	w0, w0, #0x1
   827d0:	b9000280 	str	w0, [x20]
   827d4:	34000160 	cbz	w0, 82800 <_ZN6kernel4arch3arm4initEv+0xa0>
   827d8:	52800013 	mov	w19, #0x0                   	// #0
   827dc:	d503201f 	nop
   827e0:	52800400 	mov	w0, #0x20                  	// #32
   827e4:	94000b53 	bl	85530 <_ZN5stdio4putcEc>
   827e8:	52800400 	mov	w0, #0x20                  	// #32
   827ec:	94000b51 	bl	85530 <_ZN5stdio4putcEc>
   827f0:	b9400281 	ldr	w1, [x20]
   827f4:	11000673 	add	w19, w19, #0x1
   827f8:	6b13003f 	cmp	w1, w19
   827fc:	54ffff28 	b.hi	827e0 <_ZN6kernel4arch3arm4initEv+0x80>  // b.pmore
   82800:	d0000020 	adrp	x0, 88000 <__rodata_start>
   82804:	91064000 	add	x0, x0, #0x190
   82808:	94000b56 	bl	85560 <_ZN5stdio4putsEPKc>
   8280c:	a94153f3 	ldp	x19, x20, [sp, #16]
   82810:	f94013f5 	ldr	x21, [sp, #32]
   82814:	a8c37bfd 	ldp	x29, x30, [sp], #48
   82818:	17fff8be 	b	80b10 <_ZN6kernel4initEv>
   8281c:	00000000 	.inst	0x00000000 ; undefined

0000000000082820 <_ZN9scheduler4arch3arm4initEv>:
   82820:	a9bd7bfd 	stp	x29, x30, [sp, #-48]!
   82824:	910003fd 	mov	x29, sp
   82828:	a90153f3 	stp	x19, x20, [sp, #16]
   8282c:	d0000254 	adrp	x20, cc000 <_ZN10graphics2d4font12_GLOBAL__N_110bufferDataE+0x20c78>
   82830:	f90013f5 	str	x21, [sp, #32]
   82834:	f941f295 	ldr	x21, [x20, #992]
   82838:	b94002a0 	ldr	w0, [x21]
   8283c:	34000160 	cbz	w0, 82868 <_ZN9scheduler4arch3arm4initEv+0x48>
   82840:	52800013 	mov	w19, #0x0                   	// #0
   82844:	d503201f 	nop
   82848:	52800400 	mov	w0, #0x20                  	// #32
   8284c:	94000b39 	bl	85530 <_ZN5stdio4putcEc>
   82850:	52800400 	mov	w0, #0x20                  	// #32
   82854:	94000b37 	bl	85530 <_ZN5stdio4putcEc>
   82858:	b94002a0 	ldr	w0, [x21]
   8285c:	11000673 	add	w19, w19, #0x1
   82860:	6b13001f 	cmp	w0, w19
   82864:	54ffff28 	b.hi	82848 <_ZN9scheduler4arch3arm4initEv+0x28>  // b.pmore
   82868:	d0000020 	adrp	x0, 88000 <__rodata_start>
   8286c:	910ce000 	add	x0, x0, #0x338
   82870:	94000b3c 	bl	85560 <_ZN5stdio4putsEPKc>
   82874:	f941f295 	ldr	x21, [x20, #992]
   82878:	b94002a0 	ldr	w0, [x21]
   8287c:	11000400 	add	w0, w0, #0x1
   82880:	b90002a0 	str	w0, [x21]
   82884:	34000160 	cbz	w0, 828b0 <_ZN9scheduler4arch3arm4initEv+0x90>
   82888:	52800013 	mov	w19, #0x0                   	// #0
   8288c:	d503201f 	nop
   82890:	52800400 	mov	w0, #0x20                  	// #32
   82894:	94000b27 	bl	85530 <_ZN5stdio4putcEc>
   82898:	52800400 	mov	w0, #0x20                  	// #32
   8289c:	94000b25 	bl	85530 <_ZN5stdio4putcEc>
   828a0:	b94002a0 	ldr	w0, [x21]
   828a4:	11000673 	add	w19, w19, #0x1
   828a8:	6b13001f 	cmp	w0, w19
   828ac:	54ffff28 	b.hi	82890 <_ZN9scheduler4arch3arm4initEv+0x70>  // b.pmore
   828b0:	d0000020 	adrp	x0, 88000 <__rodata_start>
   828b4:	910d6000 	add	x0, x0, #0x358
   828b8:	94000b2a 	bl	85560 <_ZN5stdio4putsEPKc>
   828bc:	d2800700 	mov	x0, #0x38                  	// #56
   828c0:	97fffbd8 	bl	81820 <_ZN6memory7kmallocEm>
   828c4:	aa0003f5 	mov	x21, x0
   828c8:	b4000080 	cbz	x0, 828d8 <_ZN9scheduler4arch3arm4initEv+0xb8>
   828cc:	d0000021 	adrp	x1, 88000 <__rodata_start>
   828d0:	910de021 	add	x1, x1, #0x378
   828d4:	97fffd2f 	bl	81d90 <_ZN7ProcessC1EPKc>
   828d8:	d2800a00 	mov	x0, #0x50                  	// #80
   828dc:	97fffbd1 	bl	81820 <_ZN6memory7kmallocEm>
   828e0:	aa0003f3 	mov	x19, x0
   828e4:	b4000060 	cbz	x0, 828f0 <_ZN9scheduler4arch3arm4initEv+0xd0>
   828e8:	aa1503e1 	mov	x1, x21
   828ec:	97fffeb1 	bl	823b0 <_ZN6ThreadC1ER7Process>
   828f0:	f9412a80 	ldr	x0, [x20, #592]
   828f4:	3901027f 	strb	wzr, [x19, #64]
   828f8:	f9400400 	ldr	x0, [x0, #8]
   828fc:	b4000040 	cbz	x0, 82904 <_ZN9scheduler4arch3arm4initEv+0xe4>
   82900:	f9000013 	str	x19, [x0]
   82904:	f9412a82 	ldr	x2, [x20, #592]
   82908:	a900027f 	stp	xzr, x0, [x19]
   8290c:	f9400040 	ldr	x0, [x2]
   82910:	f9000453 	str	x19, [x2, #8]
   82914:	b4000620 	cbz	x0, 829d8 <_ZN9scheduler4arch3arm4initEv+0x1b8>
   82918:	f9412a82 	ldr	x2, [x20, #592]
   8291c:	f9419e80 	ldr	x0, [x20, #824]
   82920:	b9401041 	ldr	w1, [x2, #16]
   82924:	11000421 	add	w1, w1, #0x1
   82928:	b9001041 	str	w1, [x2, #16]
   8292c:	c89ffc13 	stlr	x19, [x0]
   82930:	f941f295 	ldr	x21, [x20, #992]
   82934:	b94002a0 	ldr	w0, [x21]
   82938:	34000140 	cbz	w0, 82960 <_ZN9scheduler4arch3arm4initEv+0x140>
   8293c:	52800013 	mov	w19, #0x0                   	// #0
   82940:	52800400 	mov	w0, #0x20                  	// #32
   82944:	94000afb 	bl	85530 <_ZN5stdio4putcEc>
   82948:	52800400 	mov	w0, #0x20                  	// #32
   8294c:	94000af9 	bl	85530 <_ZN5stdio4putcEc>
   82950:	b94002a0 	ldr	w0, [x21]
   82954:	11000673 	add	w19, w19, #0x1
   82958:	6b13001f 	cmp	w0, w19
   8295c:	54ffff28 	b.hi	82940 <_ZN9scheduler4arch3arm4initEv+0x120>  // b.pmore
   82960:	d0000020 	adrp	x0, 88000 <__rodata_start>
   82964:	910e0000 	add	x0, x0, #0x380
   82968:	94000afe 	bl	85560 <_ZN5stdio4putsEPKc>
   8296c:	f941da93 	ldr	x19, [x20, #944]
   82970:	52800020 	mov	w0, #0x1                   	// #1
   82974:	b9400261 	ldr	w1, [x19]
   82978:	94000b8e 	bl	857b0 <_ZN5timer4arch3arm5raspi9set_timerENS2_5TimerEj>
   8297c:	b9400261 	ldr	w1, [x19]
   82980:	52800060 	mov	w0, #0x3                   	// #3
   82984:	94000b8b 	bl	857b0 <_ZN5timer4arch3arm5raspi9set_timerENS2_5TimerEj>
   82988:	f941f294 	ldr	x20, [x20, #992]
   8298c:	b9400280 	ldr	w0, [x20]
   82990:	51000400 	sub	w0, w0, #0x1
   82994:	b9000280 	str	w0, [x20]
   82998:	34000140 	cbz	w0, 829c0 <_ZN9scheduler4arch3arm4initEv+0x1a0>
   8299c:	52800013 	mov	w19, #0x0                   	// #0
   829a0:	52800400 	mov	w0, #0x20                  	// #32
   829a4:	94000ae3 	bl	85530 <_ZN5stdio4putcEc>
   829a8:	52800400 	mov	w0, #0x20                  	// #32
   829ac:	94000ae1 	bl	85530 <_ZN5stdio4putcEc>
   829b0:	b9400280 	ldr	w0, [x20]
   829b4:	11000673 	add	w19, w19, #0x1
   829b8:	6b13001f 	cmp	w0, w19
   829bc:	54ffff28 	b.hi	829a0 <_ZN9scheduler4arch3arm4initEv+0x180>  // b.pmore
   829c0:	a94153f3 	ldp	x19, x20, [sp, #16]
   829c4:	d0000020 	adrp	x0, 88000 <__rodata_start>
   829c8:	91064000 	add	x0, x0, #0x190
   829cc:	f94013f5 	ldr	x21, [sp, #32]
   829d0:	a8c37bfd 	ldp	x29, x30, [sp], #48
   829d4:	14000ae3 	b	85560 <_ZN5stdio4putsEPKc>
   829d8:	f9000053 	str	x19, [x2]
   829dc:	17ffffcf 	b	82918 <_ZN9scheduler4arch3arm4initEv+0xf8>

00000000000829e0 <_ZN9scheduler4arch3arm13on_slow_timerEv>:
   829e0:	a9bd7bfd 	stp	x29, x30, [sp, #-48]!
   829e4:	52800020 	mov	w0, #0x1                   	// #1
   829e8:	910003fd 	mov	x29, sp
   829ec:	a90153f3 	stp	x19, x20, [sp, #16]
   829f0:	d0000254 	adrp	x20, cc000 <_ZN10graphics2d4font12_GLOBAL__N_110bufferDataE+0x20c78>
   829f4:	f9413e81 	ldr	x1, [x20, #632]
   829f8:	f90013f5 	str	x21, [sp, #32]
   829fc:	94000f39 	bl	866e0 <__aarch64_ldadd4_acq_rel>
   82a00:	35000040 	cbnz	w0, 82a08 <_ZN9scheduler4arch3arm13on_slow_timerEv+0x28>
   82a04:	d50342df 	msr	daifset, #0x2
   82a08:	f9418a95 	ldr	x21, [x20, #784]
   82a0c:	910022b5 	add	x21, x21, #0x8
   82a10:	aa1503e1 	mov	x1, x21
   82a14:	52800020 	mov	w0, #0x1                   	// #1
   82a18:	94000f26 	bl	866b0 <__aarch64_swp1_acq>
   82a1c:	72001c13 	ands	w19, w0, #0xff
   82a20:	54ffff81 	b.ne	82a10 <_ZN9scheduler4arch3arm13on_slow_timerEv+0x30>  // b.any
   82a24:	94000bcf 	bl	85960 <_ZN5timer3nowEv>
   82a28:	f941b285 	ldr	x5, [x20, #864]
   82a2c:	f94000a1 	ldr	x1, [x5]
   82a30:	b4000641 	cbz	x1, 82af8 <_ZN9scheduler4arch3arm13on_slow_timerEv+0x118>
   82a34:	f9412a82 	ldr	x2, [x20, #592]
   82a38:	d292cfe7 	mov	x7, #0x967f                	// #38527
   82a3c:	f2a01307 	movk	x7, #0x98, lsl #16
   82a40:	b94010a4 	ldr	w4, [x5, #16]
   82a44:	2a0003e0 	mov	w0, w0
   82a48:	52800009 	mov	w9, #0x0                   	// #0
   82a4c:	5280000a 	mov	w10, #0x0                   	// #0
   82a50:	a9401843 	ldp	x3, x6, [x2]
   82a54:	f94004a8 	ldr	x8, [x5, #8]
   82a58:	b9401045 	ldr	w5, [x2, #16]
   82a5c:	14000006 	b	82a74 <_ZN9scheduler4arch3arm13on_slow_timerEv+0x94>
   82a60:	110004a5 	add	w5, w5, #0x1
   82a64:	aa0103e3 	mov	x3, x1
   82a68:	52800033 	mov	w19, #0x1                   	// #1
   82a6c:	b40002e2 	cbz	x2, 82ac8 <_ZN9scheduler4arch3arm13on_slow_timerEv+0xe8>
   82a70:	aa0203e1 	mov	x1, x2
   82a74:	f9402422 	ldr	x2, [x1, #72]
   82a78:	eb00005f 	cmp	x2, x0
   82a7c:	54000688 	b.hi	82b4c <_ZN9scheduler4arch3arm13on_slow_timerEv+0x16c>  // b.pmore
   82a80:	cb020002 	sub	x2, x0, x2
   82a84:	eb07005f 	cmp	x2, x7
   82a88:	540007e8 	b.hi	82b84 <_ZN9scheduler4arch3arm13on_slow_timerEv+0x1a4>  // b.pmore
   82a8c:	f9400022 	ldr	x2, [x1]
   82a90:	3901003f 	strb	wzr, [x1, #64]
   82a94:	b4000522 	cbz	x2, 82b38 <_ZN9scheduler4arch3arm13on_slow_timerEv+0x158>
   82a98:	f900045f 	str	xzr, [x2, #8]
   82a9c:	51000484 	sub	w4, w4, #0x1
   82aa0:	b4000043 	cbz	x3, 82aa8 <_ZN9scheduler4arch3arm13on_slow_timerEv+0xc8>
   82aa4:	f9000461 	str	x1, [x3, #8]
   82aa8:	a9007c23 	stp	x3, xzr, [x1]
   82aac:	b5fffda6 	cbnz	x6, 82a60 <_ZN9scheduler4arch3arm13on_slow_timerEv+0x80>
   82ab0:	aa0103e6 	mov	x6, x1
   82ab4:	110004a5 	add	w5, w5, #0x1
   82ab8:	aa0103e3 	mov	x3, x1
   82abc:	52800029 	mov	w9, #0x1                   	// #1
   82ac0:	52800033 	mov	w19, #0x1                   	// #1
   82ac4:	b5fffd62 	cbnz	x2, 82a70 <_ZN9scheduler4arch3arm13on_slow_timerEv+0x90>
   82ac8:	f941b280 	ldr	x0, [x20, #864]
   82acc:	f900001f 	str	xzr, [x0]
   82ad0:	3400004a 	cbz	w10, 82ad8 <_ZN9scheduler4arch3arm13on_slow_timerEv+0xf8>
   82ad4:	f9000408 	str	x8, [x0, #8]
   82ad8:	f941b280 	ldr	x0, [x20, #864]
   82adc:	f9412a82 	ldr	x2, [x20, #592]
   82ae0:	b9001004 	str	w4, [x0, #16]
   82ae4:	f9000041 	str	x1, [x2]
   82ae8:	34000049 	cbz	w9, 82af0 <_ZN9scheduler4arch3arm13on_slow_timerEv+0x110>
   82aec:	f9000446 	str	x6, [x2, #8]
   82af0:	f9412a80 	ldr	x0, [x20, #592]
   82af4:	b9001005 	str	w5, [x0, #16]
   82af8:	f9418a80 	ldr	x0, [x20, #784]
   82afc:	91002000 	add	x0, x0, #0x8
   82b00:	089ffc1f 	stlrb	wzr, [x0]
   82b04:	f9413e81 	ldr	x1, [x20, #632]
   82b08:	12800000 	mov	w0, #0xffffffff            	// #-1
   82b0c:	94000ef5 	bl	866e0 <__aarch64_ldadd4_acq_rel>
   82b10:	7100041f 	cmp	w0, #0x1
   82b14:	54000041 	b.ne	82b1c <_ZN9scheduler4arch3arm13on_slow_timerEv+0x13c>  // b.any
   82b18:	d50342ff 	msr	daifclr, #0x2
   82b1c:	f941ae94 	ldr	x20, [x20, #856]
   82b20:	52800060 	mov	w0, #0x3                   	// #3
   82b24:	f94013f5 	ldr	x21, [sp, #32]
   82b28:	b9400281 	ldr	w1, [x20]
   82b2c:	a94153f3 	ldp	x19, x20, [sp, #16]
   82b30:	a8c37bfd 	ldp	x29, x30, [sp], #48
   82b34:	14000b1f 	b	857b0 <_ZN5timer4arch3arm5raspi9set_timerENS2_5TimerEj>
   82b38:	eb08003f 	cmp	x1, x8
   82b3c:	54fffb01 	b.ne	82a9c <_ZN9scheduler4arch3arm13on_slow_timerEv+0xbc>  // b.any
   82b40:	d2800008 	mov	x8, #0x0                   	// #0
   82b44:	5280002a 	mov	w10, #0x1                   	// #1
   82b48:	17ffffd5 	b	82a9c <_ZN9scheduler4arch3arm13on_slow_timerEv+0xbc>
   82b4c:	34000413 	cbz	w19, 82bcc <_ZN9scheduler4arch3arm13on_slow_timerEv+0x1ec>
   82b50:	f941b280 	ldr	x0, [x20, #864]
   82b54:	f9000001 	str	x1, [x0]
   82b58:	3400008a 	cbz	w10, 82b68 <_ZN9scheduler4arch3arm13on_slow_timerEv+0x188>
   82b5c:	f941b280 	ldr	x0, [x20, #864]
   82b60:	f9000408 	str	x8, [x0, #8]
   82b64:	340001f3 	cbz	w19, 82ba0 <_ZN9scheduler4arch3arm13on_slow_timerEv+0x1c0>
   82b68:	f941b280 	ldr	x0, [x20, #864]
   82b6c:	f9412a81 	ldr	x1, [x20, #592]
   82b70:	b9001004 	str	w4, [x0, #16]
   82b74:	f9000023 	str	x3, [x1]
   82b78:	34fffbc9 	cbz	w9, 82af0 <_ZN9scheduler4arch3arm13on_slow_timerEv+0x110>
   82b7c:	f9000426 	str	x6, [x1, #8]
   82b80:	17ffffdc 	b	82af0 <_ZN9scheduler4arch3arm13on_slow_timerEv+0x110>
   82b84:	34000293 	cbz	w19, 82bd4 <_ZN9scheduler4arch3arm13on_slow_timerEv+0x1f4>
   82b88:	f941b280 	ldr	x0, [x20, #864]
   82b8c:	f9000001 	str	x1, [x0]
   82b90:	3400010a 	cbz	w10, 82bb0 <_ZN9scheduler4arch3arm13on_slow_timerEv+0x1d0>
   82b94:	f941b280 	ldr	x0, [x20, #864]
   82b98:	f9000408 	str	x8, [x0, #8]
   82b9c:	350000b3 	cbnz	w19, 82bb0 <_ZN9scheduler4arch3arm13on_slow_timerEv+0x1d0>
   82ba0:	34fffac9 	cbz	w9, 82af8 <_ZN9scheduler4arch3arm13on_slow_timerEv+0x118>
   82ba4:	f9412a80 	ldr	x0, [x20, #592]
   82ba8:	f9000406 	str	x6, [x0, #8]
   82bac:	17ffffd3 	b	82af8 <_ZN9scheduler4arch3arm13on_slow_timerEv+0x118>
   82bb0:	f941b280 	ldr	x0, [x20, #864]
   82bb4:	f9412a81 	ldr	x1, [x20, #592]
   82bb8:	b9001004 	str	w4, [x0, #16]
   82bbc:	f9000023 	str	x3, [x1]
   82bc0:	34fff989 	cbz	w9, 82af0 <_ZN9scheduler4arch3arm13on_slow_timerEv+0x110>
   82bc4:	f9000426 	str	x6, [x1, #8]
   82bc8:	17ffffca 	b	82af0 <_ZN9scheduler4arch3arm13on_slow_timerEv+0x110>
   82bcc:	35fffc8a 	cbnz	w10, 82b5c <_ZN9scheduler4arch3arm13on_slow_timerEv+0x17c>
   82bd0:	17fffff4 	b	82ba0 <_ZN9scheduler4arch3arm13on_slow_timerEv+0x1c0>
   82bd4:	35fffe0a 	cbnz	w10, 82b94 <_ZN9scheduler4arch3arm13on_slow_timerEv+0x1b4>
   82bd8:	17fffff2 	b	82ba0 <_ZN9scheduler4arch3arm13on_slow_timerEv+0x1c0>
   82bdc:	d503201f 	nop

0000000000082be0 <_ZN9scheduler4lockEv>:
   82be0:	a9bf7bfd 	stp	x29, x30, [sp, #-16]!
   82be4:	d0000241 	adrp	x1, cc000 <_ZN10graphics2d4font12_GLOBAL__N_110bufferDataE+0x20c78>
   82be8:	52800020 	mov	w0, #0x1                   	// #1
   82bec:	910003fd 	mov	x29, sp
   82bf0:	f9419821 	ldr	x1, [x1, #816]
   82bf4:	94000ebb 	bl	866e0 <__aarch64_ldadd4_acq_rel>
   82bf8:	a8c17bfd 	ldp	x29, x30, [sp], #16
   82bfc:	d65f03c0 	ret

0000000000082c00 <_ZN9scheduler6unlockEv>:
   82c00:	a9be7bfd 	stp	x29, x30, [sp, #-32]!
   82c04:	12800000 	mov	w0, #0xffffffff            	// #-1
   82c08:	910003fd 	mov	x29, sp
   82c0c:	f9000bf3 	str	x19, [sp, #16]
   82c10:	d0000253 	adrp	x19, cc000 <_ZN10graphics2d4font12_GLOBAL__N_110bufferDataE+0x20c78>
   82c14:	f9419a61 	ldr	x1, [x19, #816]
   82c18:	94000eb2 	bl	866e0 <__aarch64_ldadd4_acq_rel>
   82c1c:	7100041f 	cmp	w0, #0x1
   82c20:	54000080 	b.eq	82c30 <_ZN9scheduler6unlockEv+0x30>  // b.none
   82c24:	f9400bf3 	ldr	x19, [sp, #16]
   82c28:	a8c27bfd 	ldp	x29, x30, [sp], #32
   82c2c:	d65f03c0 	ret
   82c30:	f941ee73 	ldr	x19, [x19, #984]
   82c34:	b9400260 	ldr	w0, [x19]
   82c38:	34ffff60 	cbz	w0, 82c24 <_ZN9scheduler6unlockEv+0x24>
   82c3c:	b900027f 	str	wzr, [x19]
   82c40:	f9400bf3 	ldr	x19, [sp, #16]
   82c44:	a8c27bfd 	ldp	x29, x30, [sp], #32
   82c48:	14000002 	b	82c50 <_ZN9scheduler5yieldEv>
   82c4c:	d503201f 	nop

0000000000082c50 <_ZN9scheduler5yieldEv>:
   82c50:	a9bb7bfd 	stp	x29, x30, [sp, #-80]!
   82c54:	910003fd 	mov	x29, sp
   82c58:	a90153f3 	stp	x19, x20, [sp, #16]
   82c5c:	d0000253 	adrp	x19, cc000 <_ZN10graphics2d4font12_GLOBAL__N_110bufferDataE+0x20c78>
   82c60:	f9419a60 	ldr	x0, [x19, #816]
   82c64:	88dffc14 	ldar	w20, [x0]
   82c68:	34000114 	cbz	w20, 82c88 <_ZN9scheduler5yieldEv+0x38>
   82c6c:	f941ee73 	ldr	x19, [x19, #984]
   82c70:	b9400260 	ldr	w0, [x19]
   82c74:	11000400 	add	w0, w0, #0x1
   82c78:	b9000260 	str	w0, [x19]
   82c7c:	a94153f3 	ldp	x19, x20, [sp, #16]
   82c80:	a8c57bfd 	ldp	x29, x30, [sp], #80
   82c84:	d65f03c0 	ret
   82c88:	a9025bf5 	stp	x21, x22, [sp, #32]
   82c8c:	d53b4236 	mrs	x22, daif
   82c90:	97ffffd4 	bl	82be0 <_ZN9scheduler4lockEv>
   82c94:	d50342df 	msr	daifset, #0x2
   82c98:	94000b32 	bl	85960 <_ZN5timer3nowEv>
   82c9c:	2a0003f5 	mov	w21, w0
   82ca0:	f941ce60 	ldr	x0, [x19, #920]
   82ca4:	c8dffc01 	ldar	x1, [x0]
   82ca8:	b5001441 	cbnz	x1, 82f30 <_ZN9scheduler5yieldEv+0x2e0>
   82cac:	f941ce60 	ldr	x0, [x19, #920]
   82cb0:	d0000021 	adrp	x1, 88000 <__rodata_start>
   82cb4:	91102021 	add	x1, x1, #0x408
   82cb8:	c89ffc01 	stlr	x1, [x0]
   82cbc:	f9413662 	ldr	x2, [x19, #616]
   82cc0:	52800020 	mov	w0, #0x1                   	// #1
   82cc4:	f9413e61 	ldr	x1, [x19, #632]
   82cc8:	f9000055 	str	x21, [x2]
   82ccc:	94000e85 	bl	866e0 <__aarch64_ldadd4_acq_rel>
   82cd0:	35000040 	cbnz	w0, 82cd8 <_ZN9scheduler5yieldEv+0x88>
   82cd4:	d50342df 	msr	daifset, #0x2
   82cd8:	f9418a74 	ldr	x20, [x19, #784]
   82cdc:	91002294 	add	x20, x20, #0x8
   82ce0:	aa1403e1 	mov	x1, x20
   82ce4:	52800020 	mov	w0, #0x1                   	// #1
   82ce8:	94000e72 	bl	866b0 <__aarch64_swp1_acq>
   82cec:	72001c1f 	tst	w0, #0xff
   82cf0:	54ffff81 	b.ne	82ce0 <_ZN9scheduler5yieldEv+0x90>  // b.any
   82cf4:	f9419e60 	ldr	x0, [x19, #824]
   82cf8:	c8dffc15 	ldar	x21, [x0]
   82cfc:	f9412a61 	ldr	x1, [x19, #592]
   82d00:	b9401020 	ldr	w0, [x1, #16]
   82d04:	34000ea0 	cbz	w0, 82ed8 <_ZN9scheduler5yieldEv+0x288>
   82d08:	121f02d6 	and	w22, w22, #0x2
   82d0c:	7100041f 	cmp	w0, #0x1
   82d10:	f9400034 	ldr	x20, [x1]
   82d14:	54000de0 	b.eq	82ed0 <_ZN9scheduler5yieldEv+0x280>  // b.none
   82d18:	eb1402bf 	cmp	x21, x20
   82d1c:	54000960 	b.eq	82e48 <_ZN9scheduler5yieldEv+0x1f8>  // b.none
   82d20:	a90363f7 	stp	x23, x24, [sp, #48]
   82d24:	b4001a34 	cbz	x20, 83068 <_ZN9scheduler5yieldEv+0x418>
   82d28:	f9412a63 	ldr	x3, [x19, #592]
   82d2c:	f9400281 	ldr	x1, [x20]
   82d30:	f9000061 	str	x1, [x3]
   82d34:	b4000801 	cbz	x1, 82e34 <_ZN9scheduler5yieldEv+0x1e4>
   82d38:	f900043f 	str	xzr, [x1, #8]
   82d3c:	f9412a64 	ldr	x4, [x19, #592]
   82d40:	51000403 	sub	w3, w0, #0x1
   82d44:	39410285 	ldrb	w5, [x20, #64]
   82d48:	b9001083 	str	w3, [x4, #16]
   82d4c:	34001585 	cbz	w5, 82ffc <_ZN9scheduler5yieldEv+0x3ac>
   82d50:	f9419e60 	ldr	x0, [x19, #824]
   82d54:	c89ffc14 	stlr	x20, [x0]
   82d58:	f9418a60 	ldr	x0, [x19, #784]
   82d5c:	91002000 	add	x0, x0, #0x8
   82d60:	089ffc1f 	stlrb	wzr, [x0]
   82d64:	f9413e61 	ldr	x1, [x19, #632]
   82d68:	12800000 	mov	w0, #0xffffffff            	// #-1
   82d6c:	94000e5d 	bl	866e0 <__aarch64_ldadd4_acq_rel>
   82d70:	f941ce61 	ldr	x1, [x19, #920]
   82d74:	d0000020 	adrp	x0, 88000 <__rodata_start>
   82d78:	91106000 	add	x0, x0, #0x418
   82d7c:	c89ffc20 	stlr	x0, [x1]
   82d80:	d53b4220 	mrs	x0, daif
   82d84:	37081340 	tbnz	w0, #1, 82fec <_ZN9scheduler5yieldEv+0x39c>
   82d88:	d0000020 	adrp	x0, 88000 <__rodata_start>
   82d8c:	91108000 	add	x0, x0, #0x420
   82d90:	c89ffc20 	stlr	x0, [x1]
   82d94:	94000af3 	bl	85960 <_ZN5timer3nowEv>
   82d98:	f9415a61 	ldr	x1, [x19, #688]
   82d9c:	889ffc20 	stlr	w0, [x1]
   82da0:	f941da61 	ldr	x1, [x19, #944]
   82da4:	52800020 	mov	w0, #0x1                   	// #1
   82da8:	b9400021 	ldr	w1, [x1]
   82dac:	94000a81 	bl	857b0 <_ZN5timer4arch3arm5raspi9set_timerENS2_5TimerEj>
   82db0:	f941ce77 	ldr	x23, [x19, #920]
   82db4:	d0000020 	adrp	x0, 88000 <__rodata_start>
   82db8:	9111c000 	add	x0, x0, #0x470
   82dbc:	c89ffee0 	stlr	x0, [x23]
   82dc0:	f941ee60 	ldr	x0, [x19, #984]
   82dc4:	b900001f 	str	wzr, [x0]
   82dc8:	d0000020 	adrp	x0, 88000 <__rodata_start>
   82dcc:	91120000 	add	x0, x0, #0x480
   82dd0:	c89ffee0 	stlr	x0, [x23]
   82dd4:	97ffff8b 	bl	82c00 <_ZN9scheduler6unlockEv>
   82dd8:	c89ffeff 	stlr	xzr, [x23]
   82ddc:	aa1403e1 	mov	x1, x20
   82de0:	aa1503e0 	mov	x0, x21
   82de4:	94000487 	bl	84000 <_ZN6Thread10swap_stateERS_S0_>
   82de8:	f9413e61 	ldr	x1, [x19, #632]
   82dec:	12800000 	mov	w0, #0xffffffff            	// #-1
   82df0:	94000e3c 	bl	866e0 <__aarch64_ldadd4_acq_rel>
   82df4:	7100041f 	cmp	w0, #0x1
   82df8:	54000100 	b.eq	82e18 <_ZN9scheduler5yieldEv+0x1c8>  // b.none
   82dfc:	35000136 	cbnz	w22, 82e20 <_ZN9scheduler5yieldEv+0x1d0>
   82e00:	d50342ff 	msr	daifclr, #0x2
   82e04:	a94153f3 	ldp	x19, x20, [sp, #16]
   82e08:	a9425bf5 	ldp	x21, x22, [sp, #32]
   82e0c:	a94363f7 	ldp	x23, x24, [sp, #48]
   82e10:	a8c57bfd 	ldp	x29, x30, [sp], #80
   82e14:	d65f03c0 	ret
   82e18:	d50342ff 	msr	daifclr, #0x2
   82e1c:	34ffff36 	cbz	w22, 82e00 <_ZN9scheduler5yieldEv+0x1b0>
   82e20:	a94153f3 	ldp	x19, x20, [sp, #16]
   82e24:	a9425bf5 	ldp	x21, x22, [sp, #32]
   82e28:	a94363f7 	ldp	x23, x24, [sp, #48]
   82e2c:	a8c57bfd 	ldp	x29, x30, [sp], #80
   82e30:	d65f03c0 	ret
   82e34:	f9400462 	ldr	x2, [x3, #8]
   82e38:	eb14005f 	cmp	x2, x20
   82e3c:	54fff801 	b.ne	82d3c <_ZN9scheduler5yieldEv+0xec>  // b.any
   82e40:	f900047f 	str	xzr, [x3, #8]
   82e44:	17ffffbe 	b	82d3c <_ZN9scheduler5yieldEv+0xec>
   82e48:	f9400424 	ldr	x4, [x1, #8]
   82e4c:	b4000ed4 	cbz	x20, 83024 <_ZN9scheduler5yieldEv+0x3d4>
   82e50:	f9400283 	ldr	x3, [x20]
   82e54:	f9000023 	str	x3, [x1]
   82e58:	b4000fe3 	cbz	x3, 83054 <_ZN9scheduler5yieldEv+0x404>
   82e5c:	f900047f 	str	xzr, [x3, #8]
   82e60:	b4000044 	cbz	x4, 82e68 <_ZN9scheduler5yieldEv+0x218>
   82e64:	f9000094 	str	x20, [x4]
   82e68:	f9412a61 	ldr	x1, [x19, #592]
   82e6c:	a900129f 	stp	xzr, x4, [x20]
   82e70:	f9000434 	str	x20, [x1, #8]
   82e74:	b4000e23 	cbz	x3, 83038 <_ZN9scheduler5yieldEv+0x3e8>
   82e78:	f9412a63 	ldr	x3, [x19, #592]
   82e7c:	f9418a61 	ldr	x1, [x19, #784]
   82e80:	b9001060 	str	w0, [x3, #16]
   82e84:	91002020 	add	x0, x1, #0x8
   82e88:	089ffc1f 	stlrb	wzr, [x0]
   82e8c:	f9413e61 	ldr	x1, [x19, #632]
   82e90:	12800000 	mov	w0, #0xffffffff            	// #-1
   82e94:	94000e13 	bl	866e0 <__aarch64_ldadd4_acq_rel>
   82e98:	7100041f 	cmp	w0, #0x1
   82e9c:	54000041 	b.ne	82ea4 <_ZN9scheduler5yieldEv+0x254>  // b.any
   82ea0:	d50342ff 	msr	daifclr, #0x2
   82ea4:	f941da61 	ldr	x1, [x19, #944]
   82ea8:	52800020 	mov	w0, #0x1                   	// #1
   82eac:	b9400021 	ldr	w1, [x1]
   82eb0:	94000a40 	bl	857b0 <_ZN5timer4arch3arm5raspi9set_timerENS2_5TimerEj>
   82eb4:	f941ce73 	ldr	x19, [x19, #920]
   82eb8:	c89ffe7f 	stlr	xzr, [x19]
   82ebc:	97ffff51 	bl	82c00 <_ZN9scheduler6unlockEv>
   82ec0:	35000c36 	cbnz	w22, 83044 <_ZN9scheduler5yieldEv+0x3f4>
   82ec4:	d50342ff 	msr	daifclr, #0x2
   82ec8:	a9425bf5 	ldp	x21, x22, [sp, #32]
   82ecc:	17ffff6c 	b	82c7c <_ZN9scheduler5yieldEv+0x2c>
   82ed0:	eb1402bf 	cmp	x21, x20
   82ed4:	54fff261 	b.ne	82d20 <_ZN9scheduler5yieldEv+0xd0>  // b.any
   82ed8:	f9418a60 	ldr	x0, [x19, #784]
   82edc:	91002000 	add	x0, x0, #0x8
   82ee0:	089ffc1f 	stlrb	wzr, [x0]
   82ee4:	f9413e61 	ldr	x1, [x19, #632]
   82ee8:	12800000 	mov	w0, #0xffffffff            	// #-1
   82eec:	94000dfd 	bl	866e0 <__aarch64_ldadd4_acq_rel>
   82ef0:	7100041f 	cmp	w0, #0x1
   82ef4:	54000041 	b.ne	82efc <_ZN9scheduler5yieldEv+0x2ac>  // b.any
   82ef8:	d50342ff 	msr	daifclr, #0x2
   82efc:	f941da61 	ldr	x1, [x19, #944]
   82f00:	52800020 	mov	w0, #0x1                   	// #1
   82f04:	b9400021 	ldr	w1, [x1]
   82f08:	531e7421 	lsl	w1, w1, #2
   82f0c:	94000a29 	bl	857b0 <_ZN5timer4arch3arm5raspi9set_timerENS2_5TimerEj>
   82f10:	f941ce73 	ldr	x19, [x19, #920]
   82f14:	c89ffe7f 	stlr	xzr, [x19]
   82f18:	97ffff3a 	bl	82c00 <_ZN9scheduler6unlockEv>
   82f1c:	d50342ff 	msr	daifclr, #0x2
   82f20:	a94153f3 	ldp	x19, x20, [sp, #16]
   82f24:	a9425bf5 	ldp	x21, x22, [sp, #32]
   82f28:	a8c57bfd 	ldp	x29, x30, [sp], #80
   82f2c:	d65f03c0 	ret
   82f30:	f9415a61 	ldr	x1, [x19, #688]
   82f34:	a90363f7 	stp	x23, x24, [sp, #48]
   82f38:	a9046bf9 	stp	x25, x26, [sp, #64]
   82f3c:	88dffc38 	ldar	w24, [x1]
   82f40:	c8dffc19 	ldar	x25, [x0]
   82f44:	f941f277 	ldr	x23, [x19, #992]
   82f48:	4b1802ba 	sub	w26, w21, w24
   82f4c:	b94002e0 	ldr	w0, [x23]
   82f50:	34000140 	cbz	w0, 82f78 <_ZN9scheduler5yieldEv+0x328>
   82f54:	d503201f 	nop
   82f58:	52800400 	mov	w0, #0x20                  	// #32
   82f5c:	94000975 	bl	85530 <_ZN5stdio4putcEc>
   82f60:	52800400 	mov	w0, #0x20                  	// #32
   82f64:	94000973 	bl	85530 <_ZN5stdio4putcEc>
   82f68:	b94002e0 	ldr	w0, [x23]
   82f6c:	11000694 	add	w20, w20, #0x1
   82f70:	6b14001f 	cmp	w0, w20
   82f74:	54ffff28 	b.hi	82f58 <_ZN9scheduler5yieldEv+0x308>  // b.pmore
   82f78:	d0000020 	adrp	x0, 88000 <__rodata_start>
   82f7c:	910ea000 	add	x0, x0, #0x3a8
   82f80:	94000978 	bl	85560 <_ZN5stdio4putsEPKc>
   82f84:	aa1903e0 	mov	x0, x25
   82f88:	94000976 	bl	85560 <_ZN5stdio4putsEPKc>
   82f8c:	d0000020 	adrp	x0, 88000 <__rodata_start>
   82f90:	910f0000 	add	x0, x0, #0x3c0
   82f94:	94000973 	bl	85560 <_ZN5stdio4putsEPKc>
   82f98:	2a1503e0 	mov	w0, w21
   82f9c:	94000cf5 	bl	86370 <_Z9to_stringj>
   82fa0:	94000970 	bl	85560 <_ZN5stdio4putsEPKc>
   82fa4:	d0000020 	adrp	x0, 88000 <__rodata_start>
   82fa8:	910f2000 	add	x0, x0, #0x3c8
   82fac:	9400096d 	bl	85560 <_ZN5stdio4putsEPKc>
   82fb0:	2a1803e0 	mov	w0, w24
   82fb4:	94000cef 	bl	86370 <_Z9to_stringj>
   82fb8:	9400096a 	bl	85560 <_ZN5stdio4putsEPKc>
   82fbc:	d0000020 	adrp	x0, 88000 <__rodata_start>
   82fc0:	910fc000 	add	x0, x0, #0x3f0
   82fc4:	94000967 	bl	85560 <_ZN5stdio4putsEPKc>
   82fc8:	2a1a03e0 	mov	w0, w26
   82fcc:	94000ce9 	bl	86370 <_Z9to_stringj>
   82fd0:	94000964 	bl	85560 <_ZN5stdio4putsEPKc>
   82fd4:	d0000020 	adrp	x0, 88000 <__rodata_start>
   82fd8:	910fe000 	add	x0, x0, #0x3f8
   82fdc:	94000961 	bl	85560 <_ZN5stdio4putsEPKc>
   82fe0:	a94363f7 	ldp	x23, x24, [sp, #48]
   82fe4:	a9446bf9 	ldp	x25, x26, [sp, #64]
   82fe8:	17ffff31 	b	82cac <_ZN9scheduler5yieldEv+0x5c>
   82fec:	d0000020 	adrp	x0, 88000 <__rodata_start>
   82ff0:	91112000 	add	x0, x0, #0x448
   82ff4:	c89ffc20 	stlr	x0, [x1]
   82ff8:	17ffff67 	b	82d94 <_ZN9scheduler5yieldEv+0x144>
   82ffc:	f9400482 	ldr	x2, [x4, #8]
   83000:	b4000042 	cbz	x2, 83008 <_ZN9scheduler5yieldEv+0x3b8>
   83004:	f9000054 	str	x20, [x2]
   83008:	f9412a63 	ldr	x3, [x19, #592]
   8300c:	a9000a9f 	stp	xzr, x2, [x20]
   83010:	f9000474 	str	x20, [x3, #8]
   83014:	b40001c1 	cbz	x1, 8304c <_ZN9scheduler5yieldEv+0x3fc>
   83018:	f9412a61 	ldr	x1, [x19, #592]
   8301c:	b9001020 	str	w0, [x1, #16]
   83020:	17ffff4c 	b	82d50 <_ZN9scheduler5yieldEv+0x100>
   83024:	11000400 	add	w0, w0, #0x1
   83028:	d2800003 	mov	x3, #0x0                   	// #0
   8302c:	b5fff1c4 	cbnz	x4, 82e64 <_ZN9scheduler5yieldEv+0x214>
   83030:	a9007e9f 	stp	xzr, xzr, [x20]
   83034:	f900043f 	str	xzr, [x1, #8]
   83038:	f9412a61 	ldr	x1, [x19, #592]
   8303c:	f9000034 	str	x20, [x1]
   83040:	17ffff8e 	b	82e78 <_ZN9scheduler5yieldEv+0x228>
   83044:	a9425bf5 	ldp	x21, x22, [sp, #32]
   83048:	17ffff0d 	b	82c7c <_ZN9scheduler5yieldEv+0x2c>
   8304c:	f9000074 	str	x20, [x3]
   83050:	17fffff2 	b	83018 <_ZN9scheduler5yieldEv+0x3c8>
   83054:	eb04029f 	cmp	x20, x4
   83058:	54fff041 	b.ne	82e60 <_ZN9scheduler5yieldEv+0x210>  // b.any
   8305c:	a9007e9f 	stp	xzr, xzr, [x20]
   83060:	f9000434 	str	x20, [x1, #8]
   83064:	17fffff5 	b	83038 <_ZN9scheduler5yieldEv+0x3e8>
   83068:	39410280 	ldrb	w0, [x20, #64]
   8306c:	a9046bf9 	stp	x25, x26, [sp, #64]
   83070:	d4207d00 	brk	#0x3e8
   83074:	d503201f 	nop
   83078:	d503201f 	nop
   8307c:	d503201f 	nop

0000000000083080 <_ZN9scheduler4arch3arm8on_timerEv>:
   83080:	17fffef4 	b	82c50 <_ZN9scheduler5yieldEv>
   83084:	d503201f 	nop
   83088:	d503201f 	nop
   8308c:	d503201f 	nop

0000000000083090 <_ZN9scheduler22get_total_thread_countEv>:
   83090:	a9bd7bfd 	stp	x29, x30, [sp, #-48]!
   83094:	52800020 	mov	w0, #0x1                   	// #1
   83098:	910003fd 	mov	x29, sp
   8309c:	a90153f3 	stp	x19, x20, [sp, #16]
   830a0:	b0000254 	adrp	x20, cc000 <_ZN10graphics2d4font12_GLOBAL__N_110bufferDataE+0x20c78>
   830a4:	f9413e81 	ldr	x1, [x20, #632]
   830a8:	f90013f5 	str	x21, [sp, #32]
   830ac:	94000d8d 	bl	866e0 <__aarch64_ldadd4_acq_rel>
   830b0:	35000040 	cbnz	w0, 830b8 <_ZN9scheduler22get_total_thread_countEv+0x28>
   830b4:	d50342df 	msr	daifset, #0x2
   830b8:	f9418a93 	ldr	x19, [x20, #784]
   830bc:	91002273 	add	x19, x19, #0x8
   830c0:	aa1303e1 	mov	x1, x19
   830c4:	52800020 	mov	w0, #0x1                   	// #1
   830c8:	94000d7a 	bl	866b0 <__aarch64_swp1_acq>
   830cc:	72001c1f 	tst	w0, #0xff
   830d0:	54ffff81 	b.ne	830c0 <_ZN9scheduler22get_total_thread_countEv+0x30>  // b.any
   830d4:	f9412a82 	ldr	x2, [x20, #592]
   830d8:	f941b281 	ldr	x1, [x20, #864]
   830dc:	f9414a80 	ldr	x0, [x20, #656]
   830e0:	b9401021 	ldr	w1, [x1, #16]
   830e4:	b9401055 	ldr	w21, [x2, #16]
   830e8:	b9401000 	ldr	w0, [x0, #16]
   830ec:	0b0102b5 	add	w21, w21, w1
   830f0:	0b0002b5 	add	w21, w21, w0
   830f4:	089ffe7f 	stlrb	wzr, [x19]
   830f8:	f9413e81 	ldr	x1, [x20, #632]
   830fc:	12800000 	mov	w0, #0xffffffff            	// #-1
   83100:	94000d78 	bl	866e0 <__aarch64_ldadd4_acq_rel>
   83104:	7100041f 	cmp	w0, #0x1
   83108:	54000041 	b.ne	83110 <_ZN9scheduler22get_total_thread_countEv+0x80>  // b.any
   8310c:	d50342ff 	msr	daifclr, #0x2
   83110:	2a1503e0 	mov	w0, w21
   83114:	a94153f3 	ldp	x19, x20, [sp, #16]
   83118:	f94013f5 	ldr	x21, [sp, #32]
   8311c:	a8c37bfd 	ldp	x29, x30, [sp], #48
   83120:	d65f03c0 	ret
   83124:	d503201f 	nop
   83128:	d503201f 	nop
   8312c:	d503201f 	nop

0000000000083130 <_ZN9scheduler23get_active_thread_countEv>:
   83130:	a9bd7bfd 	stp	x29, x30, [sp, #-48]!
   83134:	52800020 	mov	w0, #0x1                   	// #1
   83138:	910003fd 	mov	x29, sp
   8313c:	a90153f3 	stp	x19, x20, [sp, #16]
   83140:	b0000254 	adrp	x20, cc000 <_ZN10graphics2d4font12_GLOBAL__N_110bufferDataE+0x20c78>
   83144:	f9413e81 	ldr	x1, [x20, #632]
   83148:	f90013f5 	str	x21, [sp, #32]
   8314c:	94000d65 	bl	866e0 <__aarch64_ldadd4_acq_rel>
   83150:	35000040 	cbnz	w0, 83158 <_ZN9scheduler23get_active_thread_countEv+0x28>
   83154:	d50342df 	msr	daifset, #0x2
   83158:	f9418a93 	ldr	x19, [x20, #784]
   8315c:	91002273 	add	x19, x19, #0x8
   83160:	aa1303e1 	mov	x1, x19
   83164:	52800020 	mov	w0, #0x1                   	// #1
   83168:	94000d52 	bl	866b0 <__aarch64_swp1_acq>
   8316c:	72001c1f 	tst	w0, #0xff
   83170:	54ffff81 	b.ne	83160 <_ZN9scheduler23get_active_thread_countEv+0x30>  // b.any
   83174:	f9412a80 	ldr	x0, [x20, #592]
   83178:	b9401015 	ldr	w21, [x0, #16]
   8317c:	089ffe7f 	stlrb	wzr, [x19]
   83180:	f9413e81 	ldr	x1, [x20, #632]
   83184:	12800000 	mov	w0, #0xffffffff            	// #-1
   83188:	94000d56 	bl	866e0 <__aarch64_ldadd4_acq_rel>
   8318c:	7100041f 	cmp	w0, #0x1
   83190:	54000041 	b.ne	83198 <_ZN9scheduler23get_active_thread_countEv+0x68>  // b.any
   83194:	d50342ff 	msr	daifclr, #0x2
   83198:	2a1503e0 	mov	w0, w21
   8319c:	a94153f3 	ldp	x19, x20, [sp, #16]
   831a0:	f94013f5 	ldr	x21, [sp, #32]
   831a4:	a8c37bfd 	ldp	x29, x30, [sp], #48
   831a8:	d65f03c0 	ret
	...

0000000000083800 <_vectors>:
   83800:	d10303ff 	sub	sp, sp, #0xc0
   83804:	a90007e0 	stp	x0, x1, [sp]
   83808:	a9010fe2 	stp	x2, x3, [sp, #16]
   8380c:	a90217e4 	stp	x4, x5, [sp, #32]
   83810:	a9031fe6 	stp	x6, x7, [sp, #48]
   83814:	a90427e8 	stp	x8, x9, [sp, #64]
   83818:	a9052fea 	stp	x10, x11, [sp, #80]
   8381c:	a90637ec 	stp	x12, x13, [sp, #96]
   83820:	a9073fee 	stp	x14, x15, [sp, #112]
   83824:	a90847f0 	stp	x16, x17, [sp, #128]
   83828:	a90977f2 	stp	x18, x29, [sp, #144]
   8382c:	a90a7ffe 	stp	x30, xzr, [sp, #160]
   83830:	d5385200 	mrs	x0, esr_el1
   83834:	d5384021 	mrs	x1, elr_el1
   83838:	94000a6e 	bl	861f0 <interrupt_sync_el1t>
   8383c:	a94007e0 	ldp	x0, x1, [sp]
   83840:	a9410fe2 	ldp	x2, x3, [sp, #16]
   83844:	a94217e4 	ldp	x4, x5, [sp, #32]
   83848:	a9431fe6 	ldp	x6, x7, [sp, #48]
   8384c:	a94427e8 	ldp	x8, x9, [sp, #64]
   83850:	a9452fea 	ldp	x10, x11, [sp, #80]
   83854:	a94637ec 	ldp	x12, x13, [sp, #96]
   83858:	a9473fee 	ldp	x14, x15, [sp, #112]
   8385c:	a94847f0 	ldp	x16, x17, [sp, #128]
   83860:	a94977f2 	ldp	x18, x29, [sp, #144]
   83864:	a94a7ffe 	ldp	x30, xzr, [sp, #160]
   83868:	910303ff 	add	sp, sp, #0xc0
   8386c:	d69f03e0 	eret
   83870:	d503201f 	nop
   83874:	d503201f 	nop
   83878:	d503201f 	nop
   8387c:	d503201f 	nop
   83880:	d10303ff 	sub	sp, sp, #0xc0
   83884:	a90007e0 	stp	x0, x1, [sp]
   83888:	a9010fe2 	stp	x2, x3, [sp, #16]
   8388c:	a90217e4 	stp	x4, x5, [sp, #32]
   83890:	a9031fe6 	stp	x6, x7, [sp, #48]
   83894:	a90427e8 	stp	x8, x9, [sp, #64]
   83898:	a9052fea 	stp	x10, x11, [sp, #80]
   8389c:	a90637ec 	stp	x12, x13, [sp, #96]
   838a0:	a9073fee 	stp	x14, x15, [sp, #112]
   838a4:	a90847f0 	stp	x16, x17, [sp, #128]
   838a8:	a90977f2 	stp	x18, x29, [sp, #144]
   838ac:	a90a7ffe 	stp	x30, xzr, [sp, #160]
   838b0:	940008d0 	bl	85bf0 <interrupt_irq_el1t>
   838b4:	a94007e0 	ldp	x0, x1, [sp]
   838b8:	a9410fe2 	ldp	x2, x3, [sp, #16]
   838bc:	a94217e4 	ldp	x4, x5, [sp, #32]
   838c0:	a9431fe6 	ldp	x6, x7, [sp, #48]
   838c4:	a94427e8 	ldp	x8, x9, [sp, #64]
   838c8:	a9452fea 	ldp	x10, x11, [sp, #80]
   838cc:	a94637ec 	ldp	x12, x13, [sp, #96]
   838d0:	a9473fee 	ldp	x14, x15, [sp, #112]
   838d4:	a94847f0 	ldp	x16, x17, [sp, #128]
   838d8:	a94977f2 	ldp	x18, x29, [sp, #144]
   838dc:	a94a7ffe 	ldp	x30, xzr, [sp, #160]
   838e0:	910303ff 	add	sp, sp, #0xc0
   838e4:	d69f03e0 	eret
   838e8:	d503201f 	nop
   838ec:	d503201f 	nop
   838f0:	d503201f 	nop
   838f4:	d503201f 	nop
   838f8:	d503201f 	nop
   838fc:	d503201f 	nop
   83900:	d10303ff 	sub	sp, sp, #0xc0
   83904:	a90007e0 	stp	x0, x1, [sp]
   83908:	a9010fe2 	stp	x2, x3, [sp, #16]
   8390c:	a90217e4 	stp	x4, x5, [sp, #32]
   83910:	a9031fe6 	stp	x6, x7, [sp, #48]
   83914:	a90427e8 	stp	x8, x9, [sp, #64]
   83918:	a9052fea 	stp	x10, x11, [sp, #80]
   8391c:	a90637ec 	stp	x12, x13, [sp, #96]
   83920:	a9073fee 	stp	x14, x15, [sp, #112]
   83924:	a90847f0 	stp	x16, x17, [sp, #128]
   83928:	a90977f2 	stp	x18, x29, [sp, #144]
   8392c:	a90a7ffe 	stp	x30, xzr, [sp, #160]
   83930:	940008c8 	bl	85c50 <interrupt_fiq_el1t>
   83934:	a94007e0 	ldp	x0, x1, [sp]
   83938:	a9410fe2 	ldp	x2, x3, [sp, #16]
   8393c:	a94217e4 	ldp	x4, x5, [sp, #32]
   83940:	a9431fe6 	ldp	x6, x7, [sp, #48]
   83944:	a94427e8 	ldp	x8, x9, [sp, #64]
   83948:	a9452fea 	ldp	x10, x11, [sp, #80]
   8394c:	a94637ec 	ldp	x12, x13, [sp, #96]
   83950:	a9473fee 	ldp	x14, x15, [sp, #112]
   83954:	a94847f0 	ldp	x16, x17, [sp, #128]
   83958:	a94977f2 	ldp	x18, x29, [sp, #144]
   8395c:	a94a7ffe 	ldp	x30, xzr, [sp, #160]
   83960:	910303ff 	add	sp, sp, #0xc0
   83964:	d69f03e0 	eret
   83968:	d503201f 	nop
   8396c:	d503201f 	nop
   83970:	d503201f 	nop
   83974:	d503201f 	nop
   83978:	d503201f 	nop
   8397c:	d503201f 	nop
   83980:	d10303ff 	sub	sp, sp, #0xc0
   83984:	a90007e0 	stp	x0, x1, [sp]
   83988:	a9010fe2 	stp	x2, x3, [sp, #16]
   8398c:	a90217e4 	stp	x4, x5, [sp, #32]
   83990:	a9031fe6 	stp	x6, x7, [sp, #48]
   83994:	a90427e8 	stp	x8, x9, [sp, #64]
   83998:	a9052fea 	stp	x10, x11, [sp, #80]
   8399c:	a90637ec 	stp	x12, x13, [sp, #96]
   839a0:	a9073fee 	stp	x14, x15, [sp, #112]
   839a4:	a90847f0 	stp	x16, x17, [sp, #128]
   839a8:	a90977f2 	stp	x18, x29, [sp, #144]
   839ac:	a90a7ffe 	stp	x30, xzr, [sp, #160]
   839b0:	940008c0 	bl	85cb0 <interrupt_error_el1t>
   839b4:	a94007e0 	ldp	x0, x1, [sp]
   839b8:	a9410fe2 	ldp	x2, x3, [sp, #16]
   839bc:	a94217e4 	ldp	x4, x5, [sp, #32]
   839c0:	a9431fe6 	ldp	x6, x7, [sp, #48]
   839c4:	a94427e8 	ldp	x8, x9, [sp, #64]
   839c8:	a9452fea 	ldp	x10, x11, [sp, #80]
   839cc:	a94637ec 	ldp	x12, x13, [sp, #96]
   839d0:	a9473fee 	ldp	x14, x15, [sp, #112]
   839d4:	a94847f0 	ldp	x16, x17, [sp, #128]
   839d8:	a94977f2 	ldp	x18, x29, [sp, #144]
   839dc:	a94a7ffe 	ldp	x30, xzr, [sp, #160]
   839e0:	910303ff 	add	sp, sp, #0xc0
   839e4:	d69f03e0 	eret
   839e8:	d503201f 	nop
   839ec:	d503201f 	nop
   839f0:	d503201f 	nop
   839f4:	d503201f 	nop
   839f8:	d503201f 	nop
   839fc:	d503201f 	nop
   83a00:	d10303ff 	sub	sp, sp, #0xc0
   83a04:	a90007e0 	stp	x0, x1, [sp]
   83a08:	a9010fe2 	stp	x2, x3, [sp, #16]
   83a0c:	a90217e4 	stp	x4, x5, [sp, #32]
   83a10:	a9031fe6 	stp	x6, x7, [sp, #48]
   83a14:	a90427e8 	stp	x8, x9, [sp, #64]
   83a18:	a9052fea 	stp	x10, x11, [sp, #80]
   83a1c:	a90637ec 	stp	x12, x13, [sp, #96]
   83a20:	a9073fee 	stp	x14, x15, [sp, #112]
   83a24:	a90847f0 	stp	x16, x17, [sp, #128]
   83a28:	a90977f2 	stp	x18, x29, [sp, #144]
   83a2c:	a90a7ffe 	stp	x30, xzr, [sp, #160]
   83a30:	d5385200 	mrs	x0, esr_el1
   83a34:	d5384021 	mrs	x1, elr_el1
   83a38:	940009f6 	bl	86210 <interrupt_sync_el1h>
   83a3c:	a94007e0 	ldp	x0, x1, [sp]
   83a40:	a9410fe2 	ldp	x2, x3, [sp, #16]
   83a44:	a94217e4 	ldp	x4, x5, [sp, #32]
   83a48:	a9431fe6 	ldp	x6, x7, [sp, #48]
   83a4c:	a94427e8 	ldp	x8, x9, [sp, #64]
   83a50:	a9452fea 	ldp	x10, x11, [sp, #80]
   83a54:	a94637ec 	ldp	x12, x13, [sp, #96]
   83a58:	a9473fee 	ldp	x14, x15, [sp, #112]
   83a5c:	a94847f0 	ldp	x16, x17, [sp, #128]
   83a60:	a94977f2 	ldp	x18, x29, [sp, #144]
   83a64:	a94a7ffe 	ldp	x30, xzr, [sp, #160]
   83a68:	910303ff 	add	sp, sp, #0xc0
   83a6c:	d69f03e0 	eret
   83a70:	d503201f 	nop
   83a74:	d503201f 	nop
   83a78:	d503201f 	nop
   83a7c:	d503201f 	nop
   83a80:	d10303ff 	sub	sp, sp, #0xc0
   83a84:	a90007e0 	stp	x0, x1, [sp]
   83a88:	a9010fe2 	stp	x2, x3, [sp, #16]
   83a8c:	a90217e4 	stp	x4, x5, [sp, #32]
   83a90:	a9031fe6 	stp	x6, x7, [sp, #48]
   83a94:	a90427e8 	stp	x8, x9, [sp, #64]
   83a98:	a9052fea 	stp	x10, x11, [sp, #80]
   83a9c:	a90637ec 	stp	x12, x13, [sp, #96]
   83aa0:	a9073fee 	stp	x14, x15, [sp, #112]
   83aa4:	a90847f0 	stp	x16, x17, [sp, #128]
   83aa8:	a90977f2 	stp	x18, x29, [sp, #144]
   83aac:	a90a7ffe 	stp	x30, xzr, [sp, #160]
   83ab0:	94000398 	bl	84910 <interrupt_irq>
   83ab4:	a94007e0 	ldp	x0, x1, [sp]
   83ab8:	a9410fe2 	ldp	x2, x3, [sp, #16]
   83abc:	a94217e4 	ldp	x4, x5, [sp, #32]
   83ac0:	a9431fe6 	ldp	x6, x7, [sp, #48]
   83ac4:	a94427e8 	ldp	x8, x9, [sp, #64]
   83ac8:	a9452fea 	ldp	x10, x11, [sp, #80]
   83acc:	a94637ec 	ldp	x12, x13, [sp, #96]
   83ad0:	a9473fee 	ldp	x14, x15, [sp, #112]
   83ad4:	a94847f0 	ldp	x16, x17, [sp, #128]
   83ad8:	a94977f2 	ldp	x18, x29, [sp, #144]
   83adc:	a94a7ffe 	ldp	x30, xzr, [sp, #160]
   83ae0:	910303ff 	add	sp, sp, #0xc0
   83ae4:	d69f03e0 	eret
   83ae8:	d503201f 	nop
   83aec:	d503201f 	nop
   83af0:	d503201f 	nop
   83af4:	d503201f 	nop
   83af8:	d503201f 	nop
   83afc:	d503201f 	nop
   83b00:	d10303ff 	sub	sp, sp, #0xc0
   83b04:	a90007e0 	stp	x0, x1, [sp]
   83b08:	a9010fe2 	stp	x2, x3, [sp, #16]
   83b0c:	a90217e4 	stp	x4, x5, [sp, #32]
   83b10:	a9031fe6 	stp	x6, x7, [sp, #48]
   83b14:	a90427e8 	stp	x8, x9, [sp, #64]
   83b18:	a9052fea 	stp	x10, x11, [sp, #80]
   83b1c:	a90637ec 	stp	x12, x13, [sp, #96]
   83b20:	a9073fee 	stp	x14, x15, [sp, #112]
   83b24:	a90847f0 	stp	x16, x17, [sp, #128]
   83b28:	a90977f2 	stp	x18, x29, [sp, #144]
   83b2c:	a90a7ffe 	stp	x30, xzr, [sp, #160]
   83b30:	94000890 	bl	85d70 <interrupt_fiq_el1h>
   83b34:	a94007e0 	ldp	x0, x1, [sp]
   83b38:	a9410fe2 	ldp	x2, x3, [sp, #16]
   83b3c:	a94217e4 	ldp	x4, x5, [sp, #32]
   83b40:	a9431fe6 	ldp	x6, x7, [sp, #48]
   83b44:	a94427e8 	ldp	x8, x9, [sp, #64]
   83b48:	a9452fea 	ldp	x10, x11, [sp, #80]
   83b4c:	a94637ec 	ldp	x12, x13, [sp, #96]
   83b50:	a9473fee 	ldp	x14, x15, [sp, #112]
   83b54:	a94847f0 	ldp	x16, x17, [sp, #128]
   83b58:	a94977f2 	ldp	x18, x29, [sp, #144]
   83b5c:	a94a7ffe 	ldp	x30, xzr, [sp, #160]
   83b60:	910303ff 	add	sp, sp, #0xc0
   83b64:	d69f03e0 	eret
   83b68:	d503201f 	nop
   83b6c:	d503201f 	nop
   83b70:	d503201f 	nop
   83b74:	d503201f 	nop
   83b78:	d503201f 	nop
   83b7c:	d503201f 	nop
   83b80:	d10303ff 	sub	sp, sp, #0xc0
   83b84:	a90007e0 	stp	x0, x1, [sp]
   83b88:	a9010fe2 	stp	x2, x3, [sp, #16]
   83b8c:	a90217e4 	stp	x4, x5, [sp, #32]
   83b90:	a9031fe6 	stp	x6, x7, [sp, #48]
   83b94:	a90427e8 	stp	x8, x9, [sp, #64]
   83b98:	a9052fea 	stp	x10, x11, [sp, #80]
   83b9c:	a90637ec 	stp	x12, x13, [sp, #96]
   83ba0:	a9073fee 	stp	x14, x15, [sp, #112]
   83ba4:	a90847f0 	stp	x16, x17, [sp, #128]
   83ba8:	a90977f2 	stp	x18, x29, [sp, #144]
   83bac:	a90a7ffe 	stp	x30, xzr, [sp, #160]
   83bb0:	94000888 	bl	85dd0 <interrupt_error_el1h>
   83bb4:	a94007e0 	ldp	x0, x1, [sp]
   83bb8:	a9410fe2 	ldp	x2, x3, [sp, #16]
   83bbc:	a94217e4 	ldp	x4, x5, [sp, #32]
   83bc0:	a9431fe6 	ldp	x6, x7, [sp, #48]
   83bc4:	a94427e8 	ldp	x8, x9, [sp, #64]
   83bc8:	a9452fea 	ldp	x10, x11, [sp, #80]
   83bcc:	a94637ec 	ldp	x12, x13, [sp, #96]
   83bd0:	a9473fee 	ldp	x14, x15, [sp, #112]
   83bd4:	a94847f0 	ldp	x16, x17, [sp, #128]
   83bd8:	a94977f2 	ldp	x18, x29, [sp, #144]
   83bdc:	a94a7ffe 	ldp	x30, xzr, [sp, #160]
   83be0:	910303ff 	add	sp, sp, #0xc0
   83be4:	d69f03e0 	eret
   83be8:	d503201f 	nop
   83bec:	d503201f 	nop
   83bf0:	d503201f 	nop
   83bf4:	d503201f 	nop
   83bf8:	d503201f 	nop
   83bfc:	d503201f 	nop
   83c00:	d10303ff 	sub	sp, sp, #0xc0
   83c04:	a90007e0 	stp	x0, x1, [sp]
   83c08:	a9010fe2 	stp	x2, x3, [sp, #16]
   83c0c:	a90217e4 	stp	x4, x5, [sp, #32]
   83c10:	a9031fe6 	stp	x6, x7, [sp, #48]
   83c14:	a90427e8 	stp	x8, x9, [sp, #64]
   83c18:	a9052fea 	stp	x10, x11, [sp, #80]
   83c1c:	a90637ec 	stp	x12, x13, [sp, #96]
   83c20:	a9073fee 	stp	x14, x15, [sp, #112]
   83c24:	a90847f0 	stp	x16, x17, [sp, #128]
   83c28:	a90977f2 	stp	x18, x29, [sp, #144]
   83c2c:	a90a7ffe 	stp	x30, xzr, [sp, #160]
   83c30:	d5385200 	mrs	x0, esr_el1
   83c34:	d5384021 	mrs	x1, elr_el1
   83c38:	9400087e 	bl	85e30 <interrupt_sync_el0_64>
   83c3c:	a94007e0 	ldp	x0, x1, [sp]
   83c40:	a9410fe2 	ldp	x2, x3, [sp, #16]
   83c44:	a94217e4 	ldp	x4, x5, [sp, #32]
   83c48:	a9431fe6 	ldp	x6, x7, [sp, #48]
   83c4c:	a94427e8 	ldp	x8, x9, [sp, #64]
   83c50:	a9452fea 	ldp	x10, x11, [sp, #80]
   83c54:	a94637ec 	ldp	x12, x13, [sp, #96]
   83c58:	a9473fee 	ldp	x14, x15, [sp, #112]
   83c5c:	a94847f0 	ldp	x16, x17, [sp, #128]
   83c60:	a94977f2 	ldp	x18, x29, [sp, #144]
   83c64:	a94a7ffe 	ldp	x30, xzr, [sp, #160]
   83c68:	910303ff 	add	sp, sp, #0xc0
   83c6c:	d69f03e0 	eret
   83c70:	d503201f 	nop
   83c74:	d503201f 	nop
   83c78:	d503201f 	nop
   83c7c:	d503201f 	nop
   83c80:	d10303ff 	sub	sp, sp, #0xc0
   83c84:	a90007e0 	stp	x0, x1, [sp]
   83c88:	a9010fe2 	stp	x2, x3, [sp, #16]
   83c8c:	a90217e4 	stp	x4, x5, [sp, #32]
   83c90:	a9031fe6 	stp	x6, x7, [sp, #48]
   83c94:	a90427e8 	stp	x8, x9, [sp, #64]
   83c98:	a9052fea 	stp	x10, x11, [sp, #80]
   83c9c:	a90637ec 	stp	x12, x13, [sp, #96]
   83ca0:	a9073fee 	stp	x14, x15, [sp, #112]
   83ca4:	a90847f0 	stp	x16, x17, [sp, #128]
   83ca8:	a90977f2 	stp	x18, x29, [sp, #144]
   83cac:	a90a7ffe 	stp	x30, xzr, [sp, #160]
   83cb0:	94000878 	bl	85e90 <interrupt_irq_el0_64>
   83cb4:	a94007e0 	ldp	x0, x1, [sp]
   83cb8:	a9410fe2 	ldp	x2, x3, [sp, #16]
   83cbc:	a94217e4 	ldp	x4, x5, [sp, #32]
   83cc0:	a9431fe6 	ldp	x6, x7, [sp, #48]
   83cc4:	a94427e8 	ldp	x8, x9, [sp, #64]
   83cc8:	a9452fea 	ldp	x10, x11, [sp, #80]
   83ccc:	a94637ec 	ldp	x12, x13, [sp, #96]
   83cd0:	a9473fee 	ldp	x14, x15, [sp, #112]
   83cd4:	a94847f0 	ldp	x16, x17, [sp, #128]
   83cd8:	a94977f2 	ldp	x18, x29, [sp, #144]
   83cdc:	a94a7ffe 	ldp	x30, xzr, [sp, #160]
   83ce0:	910303ff 	add	sp, sp, #0xc0
   83ce4:	d69f03e0 	eret
   83ce8:	d503201f 	nop
   83cec:	d503201f 	nop
   83cf0:	d503201f 	nop
   83cf4:	d503201f 	nop
   83cf8:	d503201f 	nop
   83cfc:	d503201f 	nop
   83d00:	d10303ff 	sub	sp, sp, #0xc0
   83d04:	a90007e0 	stp	x0, x1, [sp]
   83d08:	a9010fe2 	stp	x2, x3, [sp, #16]
   83d0c:	a90217e4 	stp	x4, x5, [sp, #32]
   83d10:	a9031fe6 	stp	x6, x7, [sp, #48]
   83d14:	a90427e8 	stp	x8, x9, [sp, #64]
   83d18:	a9052fea 	stp	x10, x11, [sp, #80]
   83d1c:	a90637ec 	stp	x12, x13, [sp, #96]
   83d20:	a9073fee 	stp	x14, x15, [sp, #112]
   83d24:	a90847f0 	stp	x16, x17, [sp, #128]
   83d28:	a90977f2 	stp	x18, x29, [sp, #144]
   83d2c:	a90a7ffe 	stp	x30, xzr, [sp, #160]
   83d30:	94000870 	bl	85ef0 <interrupt_fiq_el0_64>
   83d34:	a94007e0 	ldp	x0, x1, [sp]
   83d38:	a9410fe2 	ldp	x2, x3, [sp, #16]
   83d3c:	a94217e4 	ldp	x4, x5, [sp, #32]
   83d40:	a9431fe6 	ldp	x6, x7, [sp, #48]
   83d44:	a94427e8 	ldp	x8, x9, [sp, #64]
   83d48:	a9452fea 	ldp	x10, x11, [sp, #80]
   83d4c:	a94637ec 	ldp	x12, x13, [sp, #96]
   83d50:	a9473fee 	ldp	x14, x15, [sp, #112]
   83d54:	a94847f0 	ldp	x16, x17, [sp, #128]
   83d58:	a94977f2 	ldp	x18, x29, [sp, #144]
   83d5c:	a94a7ffe 	ldp	x30, xzr, [sp, #160]
   83d60:	910303ff 	add	sp, sp, #0xc0
   83d64:	d69f03e0 	eret
   83d68:	d503201f 	nop
   83d6c:	d503201f 	nop
   83d70:	d503201f 	nop
   83d74:	d503201f 	nop
   83d78:	d503201f 	nop
   83d7c:	d503201f 	nop
   83d80:	d10303ff 	sub	sp, sp, #0xc0
   83d84:	a90007e0 	stp	x0, x1, [sp]
   83d88:	a9010fe2 	stp	x2, x3, [sp, #16]
   83d8c:	a90217e4 	stp	x4, x5, [sp, #32]
   83d90:	a9031fe6 	stp	x6, x7, [sp, #48]
   83d94:	a90427e8 	stp	x8, x9, [sp, #64]
   83d98:	a9052fea 	stp	x10, x11, [sp, #80]
   83d9c:	a90637ec 	stp	x12, x13, [sp, #96]
   83da0:	a9073fee 	stp	x14, x15, [sp, #112]
   83da4:	a90847f0 	stp	x16, x17, [sp, #128]
   83da8:	a90977f2 	stp	x18, x29, [sp, #144]
   83dac:	a90a7ffe 	stp	x30, xzr, [sp, #160]
   83db0:	94000868 	bl	85f50 <interrupt_error_el0_64>
   83db4:	a94007e0 	ldp	x0, x1, [sp]
   83db8:	a9410fe2 	ldp	x2, x3, [sp, #16]
   83dbc:	a94217e4 	ldp	x4, x5, [sp, #32]
   83dc0:	a9431fe6 	ldp	x6, x7, [sp, #48]
   83dc4:	a94427e8 	ldp	x8, x9, [sp, #64]
   83dc8:	a9452fea 	ldp	x10, x11, [sp, #80]
   83dcc:	a94637ec 	ldp	x12, x13, [sp, #96]
   83dd0:	a9473fee 	ldp	x14, x15, [sp, #112]
   83dd4:	a94847f0 	ldp	x16, x17, [sp, #128]
   83dd8:	a94977f2 	ldp	x18, x29, [sp, #144]
   83ddc:	a94a7ffe 	ldp	x30, xzr, [sp, #160]
   83de0:	910303ff 	add	sp, sp, #0xc0
   83de4:	d69f03e0 	eret
   83de8:	d503201f 	nop
   83dec:	d503201f 	nop
   83df0:	d503201f 	nop
   83df4:	d503201f 	nop
   83df8:	d503201f 	nop
   83dfc:	d503201f 	nop
   83e00:	d10303ff 	sub	sp, sp, #0xc0
   83e04:	a90007e0 	stp	x0, x1, [sp]
   83e08:	a9010fe2 	stp	x2, x3, [sp, #16]
   83e0c:	a90217e4 	stp	x4, x5, [sp, #32]
   83e10:	a9031fe6 	stp	x6, x7, [sp, #48]
   83e14:	a90427e8 	stp	x8, x9, [sp, #64]
   83e18:	a9052fea 	stp	x10, x11, [sp, #80]
   83e1c:	a90637ec 	stp	x12, x13, [sp, #96]
   83e20:	a9073fee 	stp	x14, x15, [sp, #112]
   83e24:	a90847f0 	stp	x16, x17, [sp, #128]
   83e28:	a90977f2 	stp	x18, x29, [sp, #144]
   83e2c:	a90a7ffe 	stp	x30, xzr, [sp, #160]
   83e30:	d5385200 	mrs	x0, esr_el1
   83e34:	d5384021 	mrs	x1, elr_el1
   83e38:	9400085e 	bl	85fb0 <interrupt_sync_el0_32>
   83e3c:	a94007e0 	ldp	x0, x1, [sp]
   83e40:	a9410fe2 	ldp	x2, x3, [sp, #16]
   83e44:	a94217e4 	ldp	x4, x5, [sp, #32]
   83e48:	a9431fe6 	ldp	x6, x7, [sp, #48]
   83e4c:	a94427e8 	ldp	x8, x9, [sp, #64]
   83e50:	a9452fea 	ldp	x10, x11, [sp, #80]
   83e54:	a94637ec 	ldp	x12, x13, [sp, #96]
   83e58:	a9473fee 	ldp	x14, x15, [sp, #112]
   83e5c:	a94847f0 	ldp	x16, x17, [sp, #128]
   83e60:	a94977f2 	ldp	x18, x29, [sp, #144]
   83e64:	a94a7ffe 	ldp	x30, xzr, [sp, #160]
   83e68:	910303ff 	add	sp, sp, #0xc0
   83e6c:	d69f03e0 	eret
   83e70:	d503201f 	nop
   83e74:	d503201f 	nop
   83e78:	d503201f 	nop
   83e7c:	d503201f 	nop
   83e80:	d10303ff 	sub	sp, sp, #0xc0
   83e84:	a90007e0 	stp	x0, x1, [sp]
   83e88:	a9010fe2 	stp	x2, x3, [sp, #16]
   83e8c:	a90217e4 	stp	x4, x5, [sp, #32]
   83e90:	a9031fe6 	stp	x6, x7, [sp, #48]
   83e94:	a90427e8 	stp	x8, x9, [sp, #64]
   83e98:	a9052fea 	stp	x10, x11, [sp, #80]
   83e9c:	a90637ec 	stp	x12, x13, [sp, #96]
   83ea0:	a9073fee 	stp	x14, x15, [sp, #112]
   83ea4:	a90847f0 	stp	x16, x17, [sp, #128]
   83ea8:	a90977f2 	stp	x18, x29, [sp, #144]
   83eac:	a90a7ffe 	stp	x30, xzr, [sp, #160]
   83eb0:	94000858 	bl	86010 <interrupt_irq_el0_32>
   83eb4:	a94007e0 	ldp	x0, x1, [sp]
   83eb8:	a9410fe2 	ldp	x2, x3, [sp, #16]
   83ebc:	a94217e4 	ldp	x4, x5, [sp, #32]
   83ec0:	a9431fe6 	ldp	x6, x7, [sp, #48]
   83ec4:	a94427e8 	ldp	x8, x9, [sp, #64]
   83ec8:	a9452fea 	ldp	x10, x11, [sp, #80]
   83ecc:	a94637ec 	ldp	x12, x13, [sp, #96]
   83ed0:	a9473fee 	ldp	x14, x15, [sp, #112]
   83ed4:	a94847f0 	ldp	x16, x17, [sp, #128]
   83ed8:	a94977f2 	ldp	x18, x29, [sp, #144]
   83edc:	a94a7ffe 	ldp	x30, xzr, [sp, #160]
   83ee0:	910303ff 	add	sp, sp, #0xc0
   83ee4:	d69f03e0 	eret
   83ee8:	d503201f 	nop
   83eec:	d503201f 	nop
   83ef0:	d503201f 	nop
   83ef4:	d503201f 	nop
   83ef8:	d503201f 	nop
   83efc:	d503201f 	nop
   83f00:	d10303ff 	sub	sp, sp, #0xc0
   83f04:	a90007e0 	stp	x0, x1, [sp]
   83f08:	a9010fe2 	stp	x2, x3, [sp, #16]
   83f0c:	a90217e4 	stp	x4, x5, [sp, #32]
   83f10:	a9031fe6 	stp	x6, x7, [sp, #48]
   83f14:	a90427e8 	stp	x8, x9, [sp, #64]
   83f18:	a9052fea 	stp	x10, x11, [sp, #80]
   83f1c:	a90637ec 	stp	x12, x13, [sp, #96]
   83f20:	a9073fee 	stp	x14, x15, [sp, #112]
   83f24:	a90847f0 	stp	x16, x17, [sp, #128]
   83f28:	a90977f2 	stp	x18, x29, [sp, #144]
   83f2c:	a90a7ffe 	stp	x30, xzr, [sp, #160]
   83f30:	94000850 	bl	86070 <interrupt_fiq_el0_32>
   83f34:	a94007e0 	ldp	x0, x1, [sp]
   83f38:	a9410fe2 	ldp	x2, x3, [sp, #16]
   83f3c:	a94217e4 	ldp	x4, x5, [sp, #32]
   83f40:	a9431fe6 	ldp	x6, x7, [sp, #48]
   83f44:	a94427e8 	ldp	x8, x9, [sp, #64]
   83f48:	a9452fea 	ldp	x10, x11, [sp, #80]
   83f4c:	a94637ec 	ldp	x12, x13, [sp, #96]
   83f50:	a9473fee 	ldp	x14, x15, [sp, #112]
   83f54:	a94847f0 	ldp	x16, x17, [sp, #128]
   83f58:	a94977f2 	ldp	x18, x29, [sp, #144]
   83f5c:	a94a7ffe 	ldp	x30, xzr, [sp, #160]
   83f60:	910303ff 	add	sp, sp, #0xc0
   83f64:	d69f03e0 	eret
   83f68:	d503201f 	nop
   83f6c:	d503201f 	nop
   83f70:	d503201f 	nop
   83f74:	d503201f 	nop
   83f78:	d503201f 	nop
   83f7c:	d503201f 	nop
   83f80:	d10303ff 	sub	sp, sp, #0xc0
   83f84:	a90007e0 	stp	x0, x1, [sp]
   83f88:	a9010fe2 	stp	x2, x3, [sp, #16]
   83f8c:	a90217e4 	stp	x4, x5, [sp, #32]
   83f90:	a9031fe6 	stp	x6, x7, [sp, #48]
   83f94:	a90427e8 	stp	x8, x9, [sp, #64]
   83f98:	a9052fea 	stp	x10, x11, [sp, #80]
   83f9c:	a90637ec 	stp	x12, x13, [sp, #96]
   83fa0:	a9073fee 	stp	x14, x15, [sp, #112]
   83fa4:	a90847f0 	stp	x16, x17, [sp, #128]
   83fa8:	a90977f2 	stp	x18, x29, [sp, #144]
   83fac:	a90a7ffe 	stp	x30, xzr, [sp, #160]
   83fb0:	94000848 	bl	860d0 <interrupt_error_el0_32>
   83fb4:	a94007e0 	ldp	x0, x1, [sp]
   83fb8:	a9410fe2 	ldp	x2, x3, [sp, #16]
   83fbc:	a94217e4 	ldp	x4, x5, [sp, #32]
   83fc0:	a9431fe6 	ldp	x6, x7, [sp, #48]
   83fc4:	a94427e8 	ldp	x8, x9, [sp, #64]
   83fc8:	a9452fea 	ldp	x10, x11, [sp, #80]
   83fcc:	a94637ec 	ldp	x12, x13, [sp, #96]
   83fd0:	a9473fee 	ldp	x14, x15, [sp, #112]
   83fd4:	a94847f0 	ldp	x16, x17, [sp, #128]
   83fd8:	a94977f2 	ldp	x18, x29, [sp, #144]
   83fdc:	a94a7ffe 	ldp	x30, xzr, [sp, #160]
   83fe0:	910303ff 	add	sp, sp, #0xc0
   83fe4:	d69f03e0 	eret

0000000000083fe8 <install_exception_handlers>:
   83fe8:	58000080 	ldr	x0, 83ff8 <install_exception_handlers+0x10>
   83fec:	d518c000 	msr	vbar_el1, x0
   83ff0:	d65f03c0 	ret
   83ff4:	00000000 	.inst	0x00000000 ; undefined
   83ff8:	00083800 	.word	0x00083800
   83ffc:	00000000 	.word	0x00000000

0000000000084000 <_ZN6Thread10swap_stateERS_S0_>:
   84000:	91004000 	add	x0, x0, #0x10
   84004:	91004021 	add	x1, x1, #0x10
   84008:	d10183ff 	sub	sp, sp, #0x60
   8400c:	910003e8 	mov	x8, sp
   84010:	f9000008 	str	x8, [x0]
   84014:	a9814d09 	stp	x9, x19, [x8, #16]!
   84018:	a9815514 	stp	x20, x21, [x8, #16]!
   8401c:	a9815d16 	stp	x22, x23, [x8, #16]!
   84020:	a9816518 	stp	x24, x25, [x8, #16]!
   84024:	a9816d1a 	stp	x26, x27, [x8, #16]!
   84028:	a981751c 	stp	x28, x29, [x8, #16]!
   8402c:	ad813d0e 	stp	q14, q15, [x8, #32]!
   84030:	ad81350c 	stp	q12, q13, [x8, #32]!
   84034:	ad002d0a 	stp	q10, q11, [x8]
   84038:	f9400028 	ldr	x8, [x1]
   8403c:	a9c14d09 	ldp	x9, x19, [x8, #16]!
   84040:	a9c15514 	ldp	x20, x21, [x8, #16]!
   84044:	a9c15d16 	ldp	x22, x23, [x8, #16]!
   84048:	a9c16518 	ldp	x24, x25, [x8, #16]!
   8404c:	a9c16d1a 	ldp	x26, x27, [x8, #16]!
   84050:	a9c1751c 	ldp	x28, x29, [x8, #16]!
   84054:	adc13d0e 	ldp	q14, q15, [x8, #32]!
   84058:	adc1350c 	ldp	q12, q13, [x8, #32]!
   8405c:	adc12d0a 	ldp	q10, q11, [x8, #32]!
   84060:	d65f03c0 	ret
	...

0000000000084070 <_ZN4arch3arm5raspi5atags4initEPNS2_4AtagE>:
   84070:	a9ba7bfd 	stp	x29, x30, [sp, #-96]!
   84074:	910003fd 	mov	x29, sp
   84078:	a9025bf5 	stp	x21, x22, [sp, #32]
   8407c:	90000255 	adrp	x21, cc000 <_ZN10graphics2d4font12_GLOBAL__N_110bufferDataE+0x20c78>
   84080:	f941f2b6 	ldr	x22, [x21, #992]
   84084:	a90153f3 	stp	x19, x20, [sp, #16]
   84088:	aa0003f4 	mov	x20, x0
   8408c:	a90363f7 	stp	x23, x24, [sp, #48]
   84090:	52800013 	mov	w19, #0x0                   	// #0
   84094:	b94002c0 	ldr	w0, [x22]
   84098:	a9046bf9 	stp	x25, x26, [sp, #64]
   8409c:	a90573fb 	stp	x27, x28, [sp, #80]
   840a0:	34000140 	cbz	w0, 840c8 <_ZN4arch3arm5raspi5atags4initEPNS2_4AtagE+0x58>
   840a4:	d503201f 	nop
   840a8:	52800400 	mov	w0, #0x20                  	// #32
   840ac:	94000521 	bl	85530 <_ZN5stdio4putcEc>
   840b0:	52800400 	mov	w0, #0x20                  	// #32
   840b4:	9400051f 	bl	85530 <_ZN5stdio4putcEc>
   840b8:	b94002c0 	ldr	w0, [x22]
   840bc:	11000673 	add	w19, w19, #0x1
   840c0:	6b13001f 	cmp	w0, w19
   840c4:	54ffff28 	b.hi	840a8 <_ZN4arch3arm5raspi5atags4initEPNS2_4AtagE+0x38>  // b.pmore
   840c8:	90000020 	adrp	x0, 88000 <__rodata_start>
   840cc:	91130000 	add	x0, x0, #0x4c0
   840d0:	94000524 	bl	85560 <_ZN5stdio4putsEPKc>
   840d4:	f941f2b3 	ldr	x19, [x21, #992]
   840d8:	f941e6a1 	ldr	x1, [x21, #968]
   840dc:	b9400260 	ldr	w0, [x19]
   840e0:	11000400 	add	w0, w0, #0x1
   840e4:	b900003f 	str	wzr, [x1]
   840e8:	b9000260 	str	w0, [x19]
   840ec:	b4001594 	cbz	x20, 8439c <_ZN4arch3arm5raspi5atags4initEPNS2_4AtagE+0x32c>
   840f0:	b9400696 	ldr	w22, [x20, #4]
   840f4:	340012b6 	cbz	w22, 84348 <_ZN4arch3arm5raspi5atags4initEPNS2_4AtagE+0x2d8>
   840f8:	9000003a 	adrp	x26, 88000 <__rodata_start>
   840fc:	9114635a 	add	x26, x26, #0x518
   84100:	528000d8 	mov	w24, #0x6                   	// #6
   84104:	72aa8838 	movk	w24, #0x5441, lsl #16
   84108:	90000039 	adrp	x25, 88000 <__rodata_start>
   8410c:	90000037 	adrp	x23, 88000 <__rodata_start>
   84110:	f941f2bb 	ldr	x27, [x21, #992]
   84114:	52800013 	mov	w19, #0x0                   	// #0
   84118:	34000140 	cbz	w0, 84140 <_ZN4arch3arm5raspi5atags4initEPNS2_4AtagE+0xd0>
   8411c:	d503201f 	nop
   84120:	52800400 	mov	w0, #0x20                  	// #32
   84124:	94000503 	bl	85530 <_ZN5stdio4putcEc>
   84128:	52800400 	mov	w0, #0x20                  	// #32
   8412c:	94000501 	bl	85530 <_ZN5stdio4putcEc>
   84130:	b9400362 	ldr	w2, [x27]
   84134:	11000673 	add	w19, w19, #0x1
   84138:	6b13005f 	cmp	w2, w19
   8413c:	54ffff28 	b.hi	84120 <_ZN4arch3arm5raspi5atags4initEPNS2_4AtagE+0xb0>  // b.pmore
   84140:	9114c320 	add	x0, x25, #0x530
   84144:	94000507 	bl	85560 <_ZN5stdio4putsEPKc>
   84148:	2a1603e0 	mov	w0, w22
   8414c:	94000889 	bl	86370 <_Z9to_stringj>
   84150:	94000504 	bl	85560 <_ZN5stdio4putsEPKc>
   84154:	911382e0 	add	x0, x23, #0x4e0
   84158:	94000502 	bl	85560 <_ZN5stdio4putsEPKc>
   8415c:	b9400696 	ldr	w22, [x20, #4]
   84160:	6b1802df 	cmp	w22, w24
   84164:	54000bc0 	b.eq	842dc <_ZN4arch3arm5raspi5atags4initEPNS2_4AtagE+0x26c>  // b.none
   84168:	54000ae8 	b.hi	842c4 <_ZN4arch3arm5raspi5atags4initEPNS2_4AtagE+0x254>  // b.pmore
   8416c:	52800040 	mov	w0, #0x2                   	// #2
   84170:	72aa8820 	movk	w0, #0x5441, lsl #16
   84174:	6b0002df 	cmp	w22, w0
   84178:	54000721 	b.ne	8425c <_ZN4arch3arm5raspi5atags4initEPNS2_4AtagE+0x1ec>  // b.any
   8417c:	f941f2bb 	ldr	x27, [x21, #992]
   84180:	52800013 	mov	w19, #0x0                   	// #0
   84184:	f941e6a0 	ldr	x0, [x21, #968]
   84188:	b9400361 	ldr	w1, [x27]
   8418c:	b9400a96 	ldr	w22, [x20, #8]
   84190:	b9000016 	str	w22, [x0]
   84194:	53147ed6 	lsr	w22, w22, #20
   84198:	34000141 	cbz	w1, 841c0 <_ZN4arch3arm5raspi5atags4initEPNS2_4AtagE+0x150>
   8419c:	d503201f 	nop
   841a0:	52800400 	mov	w0, #0x20                  	// #32
   841a4:	940004e3 	bl	85530 <_ZN5stdio4putcEc>
   841a8:	52800400 	mov	w0, #0x20                  	// #32
   841ac:	940004e1 	bl	85530 <_ZN5stdio4putcEc>
   841b0:	b9400360 	ldr	w0, [x27]
   841b4:	11000673 	add	w19, w19, #0x1
   841b8:	6b13001f 	cmp	w0, w19
   841bc:	54ffff28 	b.hi	841a0 <_ZN4arch3arm5raspi5atags4initEPNS2_4AtagE+0x130>  // b.pmore
   841c0:	90000020 	adrp	x0, 88000 <__rodata_start>
   841c4:	91058000 	add	x0, x0, #0x160
   841c8:	940004e6 	bl	85560 <_ZN5stdio4putsEPKc>
   841cc:	2a1603e0 	mov	w0, w22
   841d0:	94000868 	bl	86370 <_Z9to_stringj>
   841d4:	940004e3 	bl	85560 <_ZN5stdio4putsEPKc>
   841d8:	90000020 	adrp	x0, 88000 <__rodata_start>
   841dc:	91144000 	add	x0, x0, #0x510
   841e0:	940004e0 	bl	85560 <_ZN5stdio4putsEPKc>
   841e4:	d503201f 	nop
   841e8:	b9400282 	ldr	w2, [x20]
   841ec:	f941f2a0 	ldr	x0, [x21, #992]
   841f0:	8b021294 	add	x20, x20, x2, lsl #4
   841f4:	b9400000 	ldr	w0, [x0]
   841f8:	b9400696 	ldr	w22, [x20, #4]
   841fc:	35fff8b6 	cbnz	w22, 84110 <_ZN4arch3arm5raspi5atags4initEPNS2_4AtagE+0xa0>
   84200:	f941f2b5 	ldr	x21, [x21, #992]
   84204:	51000400 	sub	w0, w0, #0x1
   84208:	52800013 	mov	w19, #0x0                   	// #0
   8420c:	b90002a0 	str	w0, [x21]
   84210:	34000140 	cbz	w0, 84238 <_ZN4arch3arm5raspi5atags4initEPNS2_4AtagE+0x1c8>
   84214:	d503201f 	nop
   84218:	52800400 	mov	w0, #0x20                  	// #32
   8421c:	940004c5 	bl	85530 <_ZN5stdio4putcEc>
   84220:	52800400 	mov	w0, #0x20                  	// #32
   84224:	940004c3 	bl	85530 <_ZN5stdio4putcEc>
   84228:	b94002a0 	ldr	w0, [x21]
   8422c:	11000673 	add	w19, w19, #0x1
   84230:	6b13001f 	cmp	w0, w19
   84234:	54ffff28 	b.hi	84218 <_ZN4arch3arm5raspi5atags4initEPNS2_4AtagE+0x1a8>  // b.pmore
   84238:	a94153f3 	ldp	x19, x20, [sp, #16]
   8423c:	90000020 	adrp	x0, 88000 <__rodata_start>
   84240:	91064000 	add	x0, x0, #0x190
   84244:	a9425bf5 	ldp	x21, x22, [sp, #32]
   84248:	a94363f7 	ldp	x23, x24, [sp, #48]
   8424c:	a9446bf9 	ldp	x25, x26, [sp, #64]
   84250:	a94573fb 	ldp	x27, x28, [sp, #80]
   84254:	a8c67bfd 	ldp	x29, x30, [sp], #96
   84258:	140004c2 	b	85560 <_ZN5stdio4putsEPKc>
   8425c:	529fffa0 	mov	w0, #0xfffd                	// #65533
   84260:	72b577c0 	movk	w0, #0xabbe, lsl #16
   84264:	0b0002c0 	add	w0, w22, w0
   84268:	7100081f 	cmp	w0, #0x2
   8426c:	54fffbe9 	b.ls	841e8 <_ZN4arch3arm5raspi5atags4initEPNS2_4AtagE+0x178>  // b.plast
   84270:	f941f2bb 	ldr	x27, [x21, #992]
   84274:	52800013 	mov	w19, #0x0                   	// #0
   84278:	b9400360 	ldr	w0, [x27]
   8427c:	34000120 	cbz	w0, 842a0 <_ZN4arch3arm5raspi5atags4initEPNS2_4AtagE+0x230>
   84280:	52800400 	mov	w0, #0x20                  	// #32
   84284:	940004ab 	bl	85530 <_ZN5stdio4putcEc>
   84288:	52800400 	mov	w0, #0x20                  	// #32
   8428c:	940004a9 	bl	85530 <_ZN5stdio4putcEc>
   84290:	b9400360 	ldr	w0, [x27]
   84294:	11000673 	add	w19, w19, #0x1
   84298:	6b13001f 	cmp	w0, w19
   8429c:	54ffff28 	b.hi	84280 <_ZN4arch3arm5raspi5atags4initEPNS2_4AtagE+0x210>  // b.pmore
   842a0:	90000020 	adrp	x0, 88000 <__rodata_start>
   842a4:	9114a000 	add	x0, x0, #0x528
   842a8:	940004ae 	bl	85560 <_ZN5stdio4putsEPKc>
   842ac:	2a1603e0 	mov	w0, w22
   842b0:	94000830 	bl	86370 <_Z9to_stringj>
   842b4:	940004ab 	bl	85560 <_ZN5stdio4putsEPKc>
   842b8:	911382e0 	add	x0, x23, #0x4e0
   842bc:	940004a9 	bl	85560 <_ZN5stdio4putsEPKc>
   842c0:	17ffffca 	b	841e8 <_ZN4arch3arm5raspi5atags4initEPNS2_4AtagE+0x178>
   842c4:	529fff20 	mov	w0, #0xfff9                	// #65529
   842c8:	72b577c0 	movk	w0, #0xabbe, lsl #16
   842cc:	0b0002c0 	add	w0, w22, w0
   842d0:	7100081f 	cmp	w0, #0x2
   842d4:	54fffce8 	b.hi	84270 <_ZN4arch3arm5raspi5atags4initEPNS2_4AtagE+0x200>  // b.pmore
   842d8:	17ffffc4 	b	841e8 <_ZN4arch3arm5raspi5atags4initEPNS2_4AtagE+0x178>
   842dc:	f941f2bc 	ldr	x28, [x21, #992]
   842e0:	52800013 	mov	w19, #0x0                   	// #0
   842e4:	29416e96 	ldp	w22, w27, [x20, #8]
   842e8:	b9400380 	ldr	w0, [x28]
   842ec:	34000120 	cbz	w0, 84310 <_ZN4arch3arm5raspi5atags4initEPNS2_4AtagE+0x2a0>
   842f0:	52800400 	mov	w0, #0x20                  	// #32
   842f4:	9400048f 	bl	85530 <_ZN5stdio4putcEc>
   842f8:	52800400 	mov	w0, #0x20                  	// #32
   842fc:	9400048d 	bl	85530 <_ZN5stdio4putcEc>
   84300:	b9400380 	ldr	w0, [x28]
   84304:	11000673 	add	w19, w19, #0x1
   84308:	6b13001f 	cmp	w0, w19
   8430c:	54ffff28 	b.hi	842f0 <_ZN4arch3arm5raspi5atags4initEPNS2_4AtagE+0x280>  // b.pmore
   84310:	aa1a03e0 	mov	x0, x26
   84314:	94000493 	bl	85560 <_ZN5stdio4putsEPKc>
   84318:	2a1603e0 	mov	w0, w22
   8431c:	94000815 	bl	86370 <_Z9to_stringj>
   84320:	94000490 	bl	85560 <_ZN5stdio4putsEPKc>
   84324:	90000020 	adrp	x0, 88000 <__rodata_start>
   84328:	91218000 	add	x0, x0, #0x860
   8432c:	9400048d 	bl	85560 <_ZN5stdio4putsEPKc>
   84330:	2a1b03e0 	mov	w0, w27
   84334:	9400080f 	bl	86370 <_Z9to_stringj>
   84338:	9400048a 	bl	85560 <_ZN5stdio4putsEPKc>
   8433c:	911382e0 	add	x0, x23, #0x4e0
   84340:	94000488 	bl	85560 <_ZN5stdio4putsEPKc>
   84344:	17ffffa9 	b	841e8 <_ZN4arch3arm5raspi5atags4initEPNS2_4AtagE+0x178>
   84348:	34000140 	cbz	w0, 84370 <_ZN4arch3arm5raspi5atags4initEPNS2_4AtagE+0x300>
   8434c:	d503201f 	nop
   84350:	52800400 	mov	w0, #0x20                  	// #32
   84354:	94000477 	bl	85530 <_ZN5stdio4putcEc>
   84358:	52800400 	mov	w0, #0x20                  	// #32
   8435c:	94000475 	bl	85530 <_ZN5stdio4putcEc>
   84360:	b9400260 	ldr	w0, [x19]
   84364:	110006d6 	add	w22, w22, #0x1
   84368:	6b16001f 	cmp	w0, w22
   8436c:	54ffff28 	b.hi	84350 <_ZN4arch3arm5raspi5atags4initEPNS2_4AtagE+0x2e0>  // b.pmore
   84370:	90000020 	adrp	x0, 88000 <__rodata_start>
   84374:	9113a000 	add	x0, x0, #0x4e8
   84378:	9400047a 	bl	85560 <_ZN5stdio4putsEPKc>
   8437c:	b9400696 	ldr	w22, [x20, #4]
   84380:	34000096 	cbz	w22, 84390 <_ZN4arch3arm5raspi5atags4initEPNS2_4AtagE+0x320>
   84384:	f941f2a0 	ldr	x0, [x21, #992]
   84388:	b9400000 	ldr	w0, [x0]
   8438c:	17ffff5b 	b	840f8 <_ZN4arch3arm5raspi5atags4initEPNS2_4AtagE+0x88>
   84390:	f941f2a0 	ldr	x0, [x21, #992]
   84394:	b9400000 	ldr	w0, [x0]
   84398:	17ffff9a 	b	84200 <_ZN4arch3arm5raspi5atags4initEPNS2_4AtagE+0x190>
   8439c:	b9400680 	ldr	w0, [x20, #4]
   843a0:	d4207d00 	brk	#0x3e8
	...

00000000000843b0 <_ZN11framebuffer8set_modeEjjj17FramebufferFormat>:
   843b0:	a9b47bfd 	stp	x29, x30, [sp, #-192]!
   843b4:	910003fd 	mov	x29, sp
   843b8:	a90363f7 	stp	x23, x24, [sp, #48]
   843bc:	52800018 	mov	w24, #0x0                   	// #0
   843c0:	340000a0 	cbz	w0, 843d4 <_ZN11framebuffer8set_modeEjjj17FramebufferFormat+0x24>
   843c4:	2a1803e0 	mov	w0, w24
   843c8:	a94363f7 	ldp	x23, x24, [sp, #48]
   843cc:	a8cc7bfd 	ldp	x29, x30, [sp], #192
   843d0:	d65f03c0 	ret
   843d4:	a90153f3 	stp	x19, x20, [sp, #16]
   843d8:	90000254 	adrp	x20, cc000 <_ZN10graphics2d4font12_GLOBAL__N_110bufferDataE+0x20c78>
   843dc:	2a0003f3 	mov	w19, w0
   843e0:	a9046bf9 	stp	x25, x26, [sp, #64]
   843e4:	2a0203f7 	mov	w23, w2
   843e8:	52800018 	mov	w24, #0x0                   	// #0
   843ec:	f941f299 	ldr	x25, [x20, #992]
   843f0:	a9025bf5 	stp	x21, x22, [sp, #32]
   843f4:	2a0103f6 	mov	w22, w1
   843f8:	2a0303f5 	mov	w21, w3
   843fc:	b9400320 	ldr	w0, [x25]
   84400:	34000140 	cbz	w0, 84428 <_ZN11framebuffer8set_modeEjjj17FramebufferFormat+0x78>
   84404:	d503201f 	nop
   84408:	52800400 	mov	w0, #0x20                  	// #32
   8440c:	94000449 	bl	85530 <_ZN5stdio4putcEc>
   84410:	52800400 	mov	w0, #0x20                  	// #32
   84414:	94000447 	bl	85530 <_ZN5stdio4putcEc>
   84418:	b9400320 	ldr	w0, [x25]
   8441c:	11000718 	add	w24, w24, #0x1
   84420:	6b18001f 	cmp	w0, w24
   84424:	54ffff28 	b.hi	84408 <_ZN11framebuffer8set_modeEjjj17FramebufferFormat+0x58>  // b.pmore
   84428:	90000020 	adrp	x0, 88000 <__rodata_start>
   8442c:	9114e000 	add	x0, x0, #0x538
   84430:	9400044c 	bl	85560 <_ZN5stdio4putsEPKc>
   84434:	90000038 	adrp	x24, 88000 <__rodata_start>
   84438:	91062318 	add	x24, x24, #0x188
   8443c:	52800000 	mov	w0, #0x0                   	// #0
   84440:	940007cc 	bl	86370 <_Z9to_stringj>
   84444:	94000447 	bl	85560 <_ZN5stdio4putsEPKc>
   84448:	aa1803e0 	mov	x0, x24
   8444c:	94000445 	bl	85560 <_ZN5stdio4putsEPKc>
   84450:	2a1603e0 	mov	w0, w22
   84454:	940007c7 	bl	86370 <_Z9to_stringj>
   84458:	94000442 	bl	85560 <_ZN5stdio4putsEPKc>
   8445c:	9000003a 	adrp	x26, 88000 <__rodata_start>
   84460:	91158340 	add	x0, x26, #0x560
   84464:	9400043f 	bl	85560 <_ZN5stdio4putsEPKc>
   84468:	2a1703e0 	mov	w0, w23
   8446c:	940007c1 	bl	86370 <_Z9to_stringj>
   84470:	9400043c 	bl	85560 <_ZN5stdio4putsEPKc>
   84474:	aa1803e0 	mov	x0, x24
   84478:	9400043a 	bl	85560 <_ZN5stdio4putsEPKc>
   8447c:	71000abf 	cmp	w21, #0x2
   84480:	54000b88 	b.hi	845f0 <_ZN11framebuffer8set_modeEjjj17FramebufferFormat+0x240>  // b.pmore
   84484:	90000240 	adrp	x0, cc000 <_ZN10graphics2d4font12_GLOBAL__N_110bufferDataE+0x20c78>
   84488:	91134000 	add	x0, x0, #0x4d0
   8448c:	a90573fb 	stp	x27, x28, [sp, #80]
   84490:	531d72b9 	lsl	w25, w21, #3
   84494:	9101c3fb 	add	x27, sp, #0x70
   84498:	f8755800 	ldr	x0, [x0, w21, uxtw #3]
   8449c:	11004339 	add	w25, w25, #0x10
   844a0:	94000430 	bl	85560 <_ZN5stdio4putsEPKc>
   844a4:	90000020 	adrp	x0, 88000 <__rodata_start>
   844a8:	9115a000 	add	x0, x0, #0x568
   844ac:	9400042d 	bl	85560 <_ZN5stdio4putsEPKc>
   844b0:	b9007bf7 	str	w23, [sp, #120]
   844b4:	f941f29c 	ldr	x28, [x20, #992]
   844b8:	52900066 	mov	w6, #0x8003                	// #32771
   844bc:	72a00086 	movk	w6, #0x4, lsl #16
   844c0:	52900085 	mov	w5, #0x8004                	// #32772
   844c4:	72a00085 	movk	w5, #0x4, lsl #16
   844c8:	529000a4 	mov	w4, #0x8005                	// #32773
   844cc:	72a00084 	movk	w4, #0x4, lsl #16
   844d0:	b9400383 	ldr	w3, [x28]
   844d4:	aa1b03e0 	mov	x0, x27
   844d8:	290e5be6 	stp	w6, w22, [sp, #112]
   844dc:	11000461 	add	w1, w3, #0x1
   844e0:	b9000381 	str	w1, [x28]
   844e4:	2910dbe5 	stp	w5, w22, [sp, #132]
   844e8:	b9008ff7 	str	w23, [sp, #140]
   844ec:	291367e4 	stp	w4, w25, [sp, #152]
   844f0:	b900afff 	str	wzr, [sp, #172]
   844f4:	940001ff 	bl	84cf0 <_ZN4arch3arm5raspi7mailbox13send_messagesEPNS2_15PropertyMessageE>
   844f8:	72001c18 	ands	w24, w0, #0xff
   844fc:	54000da0 	b.eq	846b0 <_ZN11framebuffer8set_modeEjjj17FramebufferFormat+0x300>  // b.none
   84500:	d2800021 	mov	x1, #0x1                   	// #1
   84504:	f2a00081 	movk	x1, #0x4, lsl #16
   84508:	aa1b03e0 	mov	x0, x27
   8450c:	f9003be1 	str	x1, [sp, #112]
   84510:	b9007bff 	str	wzr, [sp, #120]
   84514:	b90087ff 	str	wzr, [sp, #132]
   84518:	940001f6 	bl	84cf0 <_ZN4arch3arm5raspi7mailbox13send_messagesEPNS2_15PropertyMessageE>
   8451c:	72001c18 	ands	w24, w0, #0xff
   84520:	54000ee0 	b.eq	846fc <_ZN11framebuffer8set_modeEjjj17FramebufferFormat+0x34c>  // b.none
   84524:	b9409fe1 	ldr	w1, [sp, #156]
   84528:	b9400380 	ldr	w0, [x28]
   8452c:	6b01033f 	cmp	w25, w1
   84530:	54001021 	b.ne	84734 <_ZN11framebuffer8set_modeEjjj17FramebufferFormat+0x384>  // b.any
   84534:	f9417a81 	ldr	x1, [x20, #752]
   84538:	f84743e3 	ldur	x3, [sp, #116]
   8453c:	29510bfb 	ldp	w27, w2, [sp, #136]
   84540:	92407463 	and	x3, x3, #0x3fffffff
   84544:	b9407fe4 	ldr	w4, [sp, #124]
   84548:	f9000423 	str	x3, [x1, #8]
   8454c:	6b0202ff 	cmp	w23, w2
   84550:	29026c24 	stp	w4, w27, [x1, #16]
   84554:	7a5b02c0 	ccmp	w22, w27, #0x0, eq  // eq = none
   84558:	29035422 	stp	w2, w21, [x1, #24]
   8455c:	b9006fe2 	str	w2, [sp, #108]
   84560:	54000380 	b.eq	845d0 <_ZN11framebuffer8set_modeEjjj17FramebufferFormat+0x220>  // b.none
   84564:	52800015 	mov	w21, #0x0                   	// #0
   84568:	34000140 	cbz	w0, 84590 <_ZN11framebuffer8set_modeEjjj17FramebufferFormat+0x1e0>
   8456c:	d503201f 	nop
   84570:	52800400 	mov	w0, #0x20                  	// #32
   84574:	940003ef 	bl	85530 <_ZN5stdio4putcEc>
   84578:	52800400 	mov	w0, #0x20                  	// #32
   8457c:	940003ed 	bl	85530 <_ZN5stdio4putcEc>
   84580:	b9400380 	ldr	w0, [x28]
   84584:	110006b5 	add	w21, w21, #0x1
   84588:	6b15001f 	cmp	w0, w21
   8458c:	54ffff28 	b.hi	84570 <_ZN11framebuffer8set_modeEjjj17FramebufferFormat+0x1c0>  // b.pmore
   84590:	90000020 	adrp	x0, 88000 <__rodata_start>
   84594:	91184000 	add	x0, x0, #0x610
   84598:	940003f2 	bl	85560 <_ZN5stdio4putsEPKc>
   8459c:	2a1b03e0 	mov	w0, w27
   845a0:	94000774 	bl	86370 <_Z9to_stringj>
   845a4:	940003ef 	bl	85560 <_ZN5stdio4putsEPKc>
   845a8:	91158340 	add	x0, x26, #0x560
   845ac:	940003ed 	bl	85560 <_ZN5stdio4putsEPKc>
   845b0:	b9406fe0 	ldr	w0, [sp, #108]
   845b4:	9400076f 	bl	86370 <_Z9to_stringj>
   845b8:	940003ea 	bl	85560 <_ZN5stdio4putsEPKc>
   845bc:	90000020 	adrp	x0, 88000 <__rodata_start>
   845c0:	91138000 	add	x0, x0, #0x4e0
   845c4:	940003e7 	bl	85560 <_ZN5stdio4putsEPKc>
   845c8:	f941f280 	ldr	x0, [x20, #992]
   845cc:	b9400000 	ldr	w0, [x0]
   845d0:	7100633f 	cmp	w25, #0x18
   845d4:	54000da0 	b.eq	84788 <_ZN11framebuffer8set_modeEjjj17FramebufferFormat+0x3d8>  // b.none
   845d8:	7100833f 	cmp	w25, #0x20
   845dc:	54000ea0 	b.eq	847b0 <_ZN11framebuffer8set_modeEjjj17FramebufferFormat+0x400>  // b.none
   845e0:	7100433f 	cmp	w25, #0x10
   845e4:	54000dc0 	b.eq	8479c <_ZN11framebuffer8set_modeEjjj17FramebufferFormat+0x3ec>  // b.none
   845e8:	a94573fb 	ldp	x27, x28, [sp, #80]
   845ec:	1400001b 	b	84658 <_ZN11framebuffer8set_modeEjjj17FramebufferFormat+0x2a8>
   845f0:	2a1503e0 	mov	w0, w21
   845f4:	9400075f 	bl	86370 <_Z9to_stringj>
   845f8:	940003da 	bl	85560 <_ZN5stdio4putsEPKc>
   845fc:	52800015 	mov	w21, #0x0                   	// #0
   84600:	90000020 	adrp	x0, 88000 <__rodata_start>
   84604:	9115a000 	add	x0, x0, #0x568
   84608:	940003d6 	bl	85560 <_ZN5stdio4putsEPKc>
   8460c:	f941f296 	ldr	x22, [x20, #992]
   84610:	b94002c0 	ldr	w0, [x22]
   84614:	11000400 	add	w0, w0, #0x1
   84618:	b90002c0 	str	w0, [x22]
   8461c:	34000120 	cbz	w0, 84640 <_ZN11framebuffer8set_modeEjjj17FramebufferFormat+0x290>
   84620:	52800400 	mov	w0, #0x20                  	// #32
   84624:	940003c3 	bl	85530 <_ZN5stdio4putcEc>
   84628:	52800400 	mov	w0, #0x20                  	// #32
   8462c:	940003c1 	bl	85530 <_ZN5stdio4putcEc>
   84630:	b94002c0 	ldr	w0, [x22]
   84634:	110006b5 	add	w21, w21, #0x1
   84638:	6b15001f 	cmp	w0, w21
   8463c:	54ffff28 	b.hi	84620 <_ZN11framebuffer8set_modeEjjj17FramebufferFormat+0x270>  // b.pmore
   84640:	90000020 	adrp	x0, 88000 <__rodata_start>
   84644:	9115c000 	add	x0, x0, #0x570
   84648:	940003c6 	bl	85560 <_ZN5stdio4putsEPKc>
   8464c:	52800018 	mov	w24, #0x0                   	// #0
   84650:	f941f280 	ldr	x0, [x20, #992]
   84654:	b9400000 	ldr	w0, [x0]
   84658:	f941f294 	ldr	x20, [x20, #992]
   8465c:	51000400 	sub	w0, w0, #0x1
   84660:	b9000280 	str	w0, [x20]
   84664:	34000120 	cbz	w0, 84688 <_ZN11framebuffer8set_modeEjjj17FramebufferFormat+0x2d8>
   84668:	52800400 	mov	w0, #0x20                  	// #32
   8466c:	940003b1 	bl	85530 <_ZN5stdio4putcEc>
   84670:	52800400 	mov	w0, #0x20                  	// #32
   84674:	940003af 	bl	85530 <_ZN5stdio4putcEc>
   84678:	b9400280 	ldr	w0, [x20]
   8467c:	11000673 	add	w19, w19, #0x1
   84680:	6b13001f 	cmp	w0, w19
   84684:	54ffff28 	b.hi	84668 <_ZN11framebuffer8set_modeEjjj17FramebufferFormat+0x2b8>  // b.pmore
   84688:	90000020 	adrp	x0, 88000 <__rodata_start>
   8468c:	91064000 	add	x0, x0, #0x190
   84690:	940003b4 	bl	85560 <_ZN5stdio4putsEPKc>
   84694:	2a1803e0 	mov	w0, w24
   84698:	a94153f3 	ldp	x19, x20, [sp, #16]
   8469c:	a9425bf5 	ldp	x21, x22, [sp, #32]
   846a0:	a94363f7 	ldp	x23, x24, [sp, #48]
   846a4:	a9446bf9 	ldp	x25, x26, [sp, #64]
   846a8:	a8cc7bfd 	ldp	x29, x30, [sp], #192
   846ac:	d65f03c0 	ret
   846b0:	b9400380 	ldr	w0, [x28]
   846b4:	52800015 	mov	w21, #0x0                   	// #0
   846b8:	34000140 	cbz	w0, 846e0 <_ZN11framebuffer8set_modeEjjj17FramebufferFormat+0x330>
   846bc:	d503201f 	nop
   846c0:	52800400 	mov	w0, #0x20                  	// #32
   846c4:	9400039b 	bl	85530 <_ZN5stdio4putcEc>
   846c8:	52800400 	mov	w0, #0x20                  	// #32
   846cc:	94000399 	bl	85530 <_ZN5stdio4putcEc>
   846d0:	b9400380 	ldr	w0, [x28]
   846d4:	110006b5 	add	w21, w21, #0x1
   846d8:	6b15001f 	cmp	w0, w21
   846dc:	54ffff28 	b.hi	846c0 <_ZN11framebuffer8set_modeEjjj17FramebufferFormat+0x310>  // b.pmore
   846e0:	90000020 	adrp	x0, 88000 <__rodata_start>
   846e4:	91164000 	add	x0, x0, #0x590
   846e8:	9400039e 	bl	85560 <_ZN5stdio4putsEPKc>
   846ec:	f941f280 	ldr	x0, [x20, #992]
   846f0:	a94573fb 	ldp	x27, x28, [sp, #80]
   846f4:	b9400000 	ldr	w0, [x0]
   846f8:	17ffffd8 	b	84658 <_ZN11framebuffer8set_modeEjjj17FramebufferFormat+0x2a8>
   846fc:	b9400380 	ldr	w0, [x28]
   84700:	52800015 	mov	w21, #0x0                   	// #0
   84704:	34000120 	cbz	w0, 84728 <_ZN11framebuffer8set_modeEjjj17FramebufferFormat+0x378>
   84708:	52800400 	mov	w0, #0x20                  	// #32
   8470c:	94000389 	bl	85530 <_ZN5stdio4putcEc>
   84710:	52800400 	mov	w0, #0x20                  	// #32
   84714:	94000387 	bl	85530 <_ZN5stdio4putcEc>
   84718:	b9400380 	ldr	w0, [x28]
   8471c:	110006b5 	add	w21, w21, #0x1
   84720:	6b15001f 	cmp	w0, w21
   84724:	54ffff28 	b.hi	84708 <_ZN11framebuffer8set_modeEjjj17FramebufferFormat+0x358>  // b.pmore
   84728:	90000020 	adrp	x0, 88000 <__rodata_start>
   8472c:	9116c000 	add	x0, x0, #0x5b0
   84730:	17ffffee 	b	846e8 <_ZN11framebuffer8set_modeEjjj17FramebufferFormat+0x338>
   84734:	52800015 	mov	w21, #0x0                   	// #0
   84738:	34000140 	cbz	w0, 84760 <_ZN11framebuffer8set_modeEjjj17FramebufferFormat+0x3b0>
   8473c:	d503201f 	nop
   84740:	52800400 	mov	w0, #0x20                  	// #32
   84744:	9400037b 	bl	85530 <_ZN5stdio4putcEc>
   84748:	52800400 	mov	w0, #0x20                  	// #32
   8474c:	94000379 	bl	85530 <_ZN5stdio4putcEc>
   84750:	b9400380 	ldr	w0, [x28]
   84754:	110006b5 	add	w21, w21, #0x1
   84758:	6b15001f 	cmp	w0, w21
   8475c:	54ffff28 	b.hi	84740 <_ZN11framebuffer8set_modeEjjj17FramebufferFormat+0x390>  // b.pmore
   84760:	90000020 	adrp	x0, 88000 <__rodata_start>
   84764:	91176000 	add	x0, x0, #0x5d8
   84768:	9400037e 	bl	85560 <_ZN5stdio4putsEPKc>
   8476c:	52800018 	mov	w24, #0x0                   	// #0
   84770:	2a1903e0 	mov	w0, w25
   84774:	940006ff 	bl	86370 <_Z9to_stringj>
   84778:	9400037a 	bl	85560 <_ZN5stdio4putsEPKc>
   8477c:	90000020 	adrp	x0, 88000 <__rodata_start>
   84780:	91138000 	add	x0, x0, #0x4e0
   84784:	17ffffd9 	b	846e8 <_ZN11framebuffer8set_modeEjjj17FramebufferFormat+0x338>
   84788:	f9417a82 	ldr	x2, [x20, #752]
   8478c:	f941c283 	ldr	x3, [x20, #896]
   84790:	a94573fb 	ldp	x27, x28, [sp, #80]
   84794:	a9027c43 	stp	x3, xzr, [x2, #32]
   84798:	17ffffb0 	b	84658 <_ZN11framebuffer8set_modeEjjj17FramebufferFormat+0x2a8>
   8479c:	f9417a82 	ldr	x2, [x20, #752]
   847a0:	f9418e83 	ldr	x3, [x20, #792]
   847a4:	a94573fb 	ldp	x27, x28, [sp, #80]
   847a8:	a9027c43 	stp	x3, xzr, [x2, #32]
   847ac:	17ffffab 	b	84658 <_ZN11framebuffer8set_modeEjjj17FramebufferFormat+0x2a8>
   847b0:	f9417a82 	ldr	x2, [x20, #752]
   847b4:	f941aa83 	ldr	x3, [x20, #848]
   847b8:	a94573fb 	ldp	x27, x28, [sp, #80]
   847bc:	a9027c43 	stp	x3, xzr, [x2, #32]
   847c0:	17ffffa6 	b	84658 <_ZN11framebuffer8set_modeEjjj17FramebufferFormat+0x2a8>
   847c4:	d503201f 	nop
   847c8:	d503201f 	nop
   847cc:	d503201f 	nop

00000000000847d0 <_ZN11framebuffer4arch3arm5raspi4initEjj17FramebufferFormat>:
   847d0:	a9bc7bfd 	stp	x29, x30, [sp, #-64]!
   847d4:	910003fd 	mov	x29, sp
   847d8:	a90153f3 	stp	x19, x20, [sp, #16]
   847dc:	90000254 	adrp	x20, cc000 <_ZN10graphics2d4font12_GLOBAL__N_110bufferDataE+0x20c78>
   847e0:	a9025bf5 	stp	x21, x22, [sp, #32]
   847e4:	2a0003f6 	mov	w22, w0
   847e8:	f941f295 	ldr	x21, [x20, #992]
   847ec:	a90363f7 	stp	x23, x24, [sp, #48]
   847f0:	2a0103f7 	mov	w23, w1
   847f4:	2a0203f8 	mov	w24, w2
   847f8:	b94002a0 	ldr	w0, [x21]
   847fc:	34000160 	cbz	w0, 84828 <_ZN11framebuffer4arch3arm5raspi4initEjj17FramebufferFormat+0x58>
   84800:	52800013 	mov	w19, #0x0                   	// #0
   84804:	d503201f 	nop
   84808:	52800400 	mov	w0, #0x20                  	// #32
   8480c:	94000349 	bl	85530 <_ZN5stdio4putcEc>
   84810:	52800400 	mov	w0, #0x20                  	// #32
   84814:	94000347 	bl	85530 <_ZN5stdio4putcEc>
   84818:	b94002a5 	ldr	w5, [x21]
   8481c:	11000673 	add	w19, w19, #0x1
   84820:	6b1300bf 	cmp	w5, w19
   84824:	54ffff28 	b.hi	84808 <_ZN11framebuffer4arch3arm5raspi4initEjj17FramebufferFormat+0x38>  // b.pmore
   84828:	90000020 	adrp	x0, 88000 <__rodata_start>
   8482c:	9118c000 	add	x0, x0, #0x630
   84830:	9400034c 	bl	85560 <_ZN5stdio4putsEPKc>
   84834:	f941f287 	ldr	x7, [x20, #992]
   84838:	52800024 	mov	w4, #0x1                   	// #1
   8483c:	f9416a93 	ldr	x19, [x20, #720]
   84840:	2a1803e3 	mov	w3, w24
   84844:	f9417a86 	ldr	x6, [x20, #752]
   84848:	2a1703e2 	mov	w2, w23
   8484c:	b94000e5 	ldr	w5, [x7]
   84850:	2a1603e1 	mov	w1, w22
   84854:	b9000264 	str	w4, [x19]
   84858:	52800000 	mov	w0, #0x0                   	// #0
   8485c:	110004a4 	add	w4, w5, #0x1
   84860:	b90000df 	str	wzr, [x6]
   84864:	b90000e4 	str	w4, [x7]
   84868:	97fffed2 	bl	843b0 <_ZN11framebuffer8set_modeEjjj17FramebufferFormat>
   8486c:	72001c1f 	tst	w0, #0xff
   84870:	540002e0 	b.eq	848cc <_ZN11framebuffer4arch3arm5raspi4initEjj17FramebufferFormat+0xfc>  // b.none
   84874:	f941f294 	ldr	x20, [x20, #992]
   84878:	b9400280 	ldr	w0, [x20]
   8487c:	51000400 	sub	w0, w0, #0x1
   84880:	b9000280 	str	w0, [x20]
   84884:	34000160 	cbz	w0, 848b0 <_ZN11framebuffer4arch3arm5raspi4initEjj17FramebufferFormat+0xe0>
   84888:	52800013 	mov	w19, #0x0                   	// #0
   8488c:	d503201f 	nop
   84890:	52800400 	mov	w0, #0x20                  	// #32
   84894:	94000327 	bl	85530 <_ZN5stdio4putcEc>
   84898:	52800400 	mov	w0, #0x20                  	// #32
   8489c:	94000325 	bl	85530 <_ZN5stdio4putcEc>
   848a0:	b9400280 	ldr	w0, [x20]
   848a4:	11000673 	add	w19, w19, #0x1
   848a8:	6b13001f 	cmp	w0, w19
   848ac:	54ffff28 	b.hi	84890 <_ZN11framebuffer4arch3arm5raspi4initEjj17FramebufferFormat+0xc0>  // b.pmore
   848b0:	a94153f3 	ldp	x19, x20, [sp, #16]
   848b4:	90000020 	adrp	x0, 88000 <__rodata_start>
   848b8:	91064000 	add	x0, x0, #0x190
   848bc:	a9425bf5 	ldp	x21, x22, [sp, #32]
   848c0:	a94363f7 	ldp	x23, x24, [sp, #48]
   848c4:	a8c47bfd 	ldp	x29, x30, [sp], #64
   848c8:	14000326 	b	85560 <_ZN5stdio4putsEPKc>
   848cc:	2a1703e2 	mov	w2, w23
   848d0:	2a1603e1 	mov	w1, w22
   848d4:	52800003 	mov	w3, #0x0                   	// #0
   848d8:	52800000 	mov	w0, #0x0                   	// #0
   848dc:	97fffeb5 	bl	843b0 <_ZN11framebuffer8set_modeEjjj17FramebufferFormat>
   848e0:	72001c1f 	tst	w0, #0xff
   848e4:	54fffc81 	b.ne	84874 <_ZN11framebuffer4arch3arm5raspi4initEjj17FramebufferFormat+0xa4>  // b.any
   848e8:	52800003 	mov	w3, #0x0                   	// #0
   848ec:	52803c02 	mov	w2, #0x1e0                 	// #480
   848f0:	52805001 	mov	w1, #0x280                 	// #640
   848f4:	52800000 	mov	w0, #0x0                   	// #0
   848f8:	97fffeae 	bl	843b0 <_ZN11framebuffer8set_modeEjjj17FramebufferFormat>
   848fc:	72001c1f 	tst	w0, #0xff
   84900:	54fffba1 	b.ne	84874 <_ZN11framebuffer4arch3arm5raspi4initEjj17FramebufferFormat+0xa4>  // b.any
   84904:	b900027f 	str	wzr, [x19]
   84908:	17ffffdb 	b	84874 <_ZN11framebuffer4arch3arm5raspi4initEjj17FramebufferFormat+0xa4>
   8490c:	00000000 	.inst	0x00000000 ; undefined

0000000000084910 <interrupt_irq>:
   84910:	a9bd7bfd 	stp	x29, x30, [sp, #-48]!
   84914:	910003fd 	mov	x29, sp
   84918:	a90153f3 	stp	x19, x20, [sp, #16]
   8491c:	52800013 	mov	w19, #0x0                   	// #0
   84920:	d2964014 	mov	x20, #0xb200                	// #45568
   84924:	f2a7e014 	movk	x20, #0x3f00, lsl #16
   84928:	f90013f5 	str	x21, [sp, #32]
   8492c:	7100fe7f 	cmp	w19, #0x3f
   84930:	52800035 	mov	w21, #0x1                   	// #1
   84934:	540000e9 	b.ls	84950 <interrupt_irq+0x40>  // b.plast
   84938:	b9400280 	ldr	w0, [x20]
   8493c:	71011e7f 	cmp	w19, #0x47
   84940:	54000120 	b.eq	84964 <interrupt_irq+0x54>  // b.none
   84944:	11000673 	add	w19, w19, #0x1
   84948:	7100fe7f 	cmp	w19, #0x3f
   8494c:	54ffff68 	b.hi	84938 <interrupt_irq+0x28>  // b.pmore
   84950:	71007e7f 	cmp	w19, #0x1f
   84954:	54000109 	b.ls	84974 <interrupt_irq+0x64>  // b.plast
   84958:	b9400a80 	ldr	w0, [x20, #8]
   8495c:	11000673 	add	w19, w19, #0x1
   84960:	17fffffa 	b	84948 <interrupt_irq+0x38>
   84964:	a94153f3 	ldp	x19, x20, [sp, #16]
   84968:	f94013f5 	ldr	x21, [sp, #32]
   8496c:	a8c37bfd 	ldp	x29, x30, [sp], #48
   84970:	d65f03c0 	ret
   84974:	b9400680 	ldr	w0, [x20, #4]
   84978:	1ad322a1 	lsl	w1, w21, w19
   8497c:	6a00003f 	tst	w1, w0
   84980:	54fffe20 	b.eq	84944 <interrupt_irq+0x34>  // b.none
   84984:	7100067f 	cmp	w19, #0x1
   84988:	54000080 	b.eq	84998 <interrupt_irq+0x88>  // b.none
   8498c:	54000169 	b.ls	849b8 <interrupt_irq+0xa8>  // b.plast
   84990:	71000a7f 	cmp	w19, #0x2
   84994:	540000a1 	b.ne	849a8 <interrupt_irq+0x98>  // b.any
   84998:	2a1303e0 	mov	w0, w19
   8499c:	11000673 	add	w19, w19, #0x1
   849a0:	940003d8 	bl	85900 <_ZN5timer4arch3arm5raspi12on_interruptENS2_5TimerE>
   849a4:	17ffffe9 	b	84948 <interrupt_irq+0x38>
   849a8:	71000e7f 	cmp	w19, #0x3
   849ac:	54ffff60 	b.eq	84998 <interrupt_irq+0x88>  // b.none
   849b0:	11000673 	add	w19, w19, #0x1
   849b4:	17ffffe5 	b	84948 <interrupt_irq+0x38>
   849b8:	35fffc73 	cbnz	w19, 84944 <interrupt_irq+0x34>
   849bc:	52800000 	mov	w0, #0x0                   	// #0
   849c0:	11000673 	add	w19, w19, #0x1
   849c4:	940003cf 	bl	85900 <_ZN5timer4arch3arm5raspi12on_interruptENS2_5TimerE>
   849c8:	17ffffe0 	b	84948 <interrupt_irq+0x38>
   849cc:	d503201f 	nop

00000000000849d0 <_ZN3irq4arch3arm5raspi4initEv>:
   849d0:	a9bd7bfd 	stp	x29, x30, [sp, #-48]!
   849d4:	910003fd 	mov	x29, sp
   849d8:	a90153f3 	stp	x19, x20, [sp, #16]
   849dc:	90000254 	adrp	x20, cc000 <_ZN10graphics2d4font12_GLOBAL__N_110bufferDataE+0x20c78>
   849e0:	52800013 	mov	w19, #0x0                   	// #0
   849e4:	f90013f5 	str	x21, [sp, #32]
   849e8:	f941f295 	ldr	x21, [x20, #992]
   849ec:	b94002a0 	ldr	w0, [x21]
   849f0:	34000140 	cbz	w0, 84a18 <_ZN3irq4arch3arm5raspi4initEv+0x48>
   849f4:	d503201f 	nop
   849f8:	52800400 	mov	w0, #0x20                  	// #32
   849fc:	940002cd 	bl	85530 <_ZN5stdio4putcEc>
   84a00:	52800400 	mov	w0, #0x20                  	// #32
   84a04:	940002cb 	bl	85530 <_ZN5stdio4putcEc>
   84a08:	b94002a1 	ldr	w1, [x21]
   84a0c:	11000673 	add	w19, w19, #0x1
   84a10:	6b13003f 	cmp	w1, w19
   84a14:	54ffff28 	b.hi	849f8 <_ZN3irq4arch3arm5raspi4initEv+0x28>  // b.pmore
   84a18:	90000020 	adrp	x0, 88000 <__rodata_start>
   84a1c:	91196000 	add	x0, x0, #0x658
   84a20:	940002d0 	bl	85560 <_ZN5stdio4putsEPKc>
   84a24:	f941f294 	ldr	x20, [x20, #992]
   84a28:	d2964001 	mov	x1, #0xb200                	// #45568
   84a2c:	f2a7e001 	movk	x1, #0x3f00, lsl #16
   84a30:	12800002 	mov	w2, #0xffffffff            	// #-1
   84a34:	b9400280 	ldr	w0, [x20]
   84a38:	b9002422 	str	w2, [x1, #36]
   84a3c:	b9001c22 	str	w2, [x1, #28]
   84a40:	b9002022 	str	w2, [x1, #32]
   84a44:	34000160 	cbz	w0, 84a70 <_ZN3irq4arch3arm5raspi4initEv+0xa0>
   84a48:	52800013 	mov	w19, #0x0                   	// #0
   84a4c:	d503201f 	nop
   84a50:	52800400 	mov	w0, #0x20                  	// #32
   84a54:	940002b7 	bl	85530 <_ZN5stdio4putcEc>
   84a58:	52800400 	mov	w0, #0x20                  	// #32
   84a5c:	940002b5 	bl	85530 <_ZN5stdio4putcEc>
   84a60:	b9400281 	ldr	w1, [x20]
   84a64:	11000673 	add	w19, w19, #0x1
   84a68:	6b13003f 	cmp	w1, w19
   84a6c:	54ffff28 	b.hi	84a50 <_ZN3irq4arch3arm5raspi4initEv+0x80>  // b.pmore
   84a70:	a94153f3 	ldp	x19, x20, [sp, #16]
   84a74:	90000020 	adrp	x0, 88000 <__rodata_start>
   84a78:	91064000 	add	x0, x0, #0x190
   84a7c:	f94013f5 	ldr	x21, [sp, #32]
   84a80:	a8c37bfd 	ldp	x29, x30, [sp], #48
   84a84:	140002b7 	b	85560 <_ZN5stdio4putsEPKc>
   84a88:	d503201f 	nop
   84a8c:	d503201f 	nop

0000000000084a90 <_ZN3irq4arch3arm5raspi6enableENS2_3IrqE>:
   84a90:	7100fc1f 	cmp	w0, #0x3f
   84a94:	54000109 	b.ls	84ab4 <_ZN3irq4arch3arm5raspi6enableENS2_3IrqE+0x24>  // b.plast
   84a98:	51010000 	sub	w0, w0, #0x40
   84a9c:	d2964002 	mov	x2, #0xb200                	// #45568
   84aa0:	f2a7e002 	movk	x2, #0x3f00, lsl #16
   84aa4:	52800021 	mov	w1, #0x1                   	// #1
   84aa8:	1ac02020 	lsl	w0, w1, w0
   84aac:	b9001840 	str	w0, [x2, #24]
   84ab0:	d65f03c0 	ret
   84ab4:	71007c1f 	cmp	w0, #0x1f
   84ab8:	54000109 	b.ls	84ad8 <_ZN3irq4arch3arm5raspi6enableENS2_3IrqE+0x48>  // b.plast
   84abc:	51008000 	sub	w0, w0, #0x20
   84ac0:	d2964002 	mov	x2, #0xb200                	// #45568
   84ac4:	f2a7e002 	movk	x2, #0x3f00, lsl #16
   84ac8:	52800021 	mov	w1, #0x1                   	// #1
   84acc:	1ac02020 	lsl	w0, w1, w0
   84ad0:	b9001440 	str	w0, [x2, #20]
   84ad4:	d65f03c0 	ret
   84ad8:	d2964002 	mov	x2, #0xb200                	// #45568
   84adc:	f2a7e002 	movk	x2, #0x3f00, lsl #16
   84ae0:	52800021 	mov	w1, #0x1                   	// #1
   84ae4:	1ac02020 	lsl	w0, w1, w0
   84ae8:	b9001040 	str	w0, [x2, #16]
   84aec:	d65f03c0 	ret

0000000000084af0 <_ZN3irq4arch3arm5raspi7disableENS2_3IrqE>:
   84af0:	7100fc1f 	cmp	w0, #0x3f
   84af4:	54000109 	b.ls	84b14 <_ZN3irq4arch3arm5raspi7disableENS2_3IrqE+0x24>  // b.plast
   84af8:	51010000 	sub	w0, w0, #0x40
   84afc:	d2964002 	mov	x2, #0xb200                	// #45568
   84b00:	f2a7e002 	movk	x2, #0x3f00, lsl #16
   84b04:	52800021 	mov	w1, #0x1                   	// #1
   84b08:	1ac02020 	lsl	w0, w1, w0
   84b0c:	b9002440 	str	w0, [x2, #36]
   84b10:	d65f03c0 	ret
   84b14:	71007c1f 	cmp	w0, #0x1f
   84b18:	54000109 	b.ls	84b38 <_ZN3irq4arch3arm5raspi7disableENS2_3IrqE+0x48>  // b.plast
   84b1c:	51008000 	sub	w0, w0, #0x20
   84b20:	d2964002 	mov	x2, #0xb200                	// #45568
   84b24:	f2a7e002 	movk	x2, #0x3f00, lsl #16
   84b28:	52800021 	mov	w1, #0x1                   	// #1
   84b2c:	1ac02020 	lsl	w0, w1, w0
   84b30:	b9002040 	str	w0, [x2, #32]
   84b34:	d65f03c0 	ret
   84b38:	d2964002 	mov	x2, #0xb200                	// #45568
   84b3c:	f2a7e002 	movk	x2, #0x3f00, lsl #16
   84b40:	52800021 	mov	w1, #0x1                   	// #1
   84b44:	1ac02020 	lsl	w0, w1, w0
   84b48:	b9001c40 	str	w0, [x2, #28]
   84b4c:	d65f03c0 	ret

0000000000084b50 <kernel_main>:
   84b50:	a9bd7bfd 	stp	x29, x30, [sp, #-48]!
   84b54:	910003fd 	mov	x29, sp
   84b58:	a90153f3 	stp	x19, x20, [sp, #16]
   84b5c:	90000254 	adrp	x20, cc000 <_ZN10graphics2d4font12_GLOBAL__N_110bufferDataE+0x20c78>
   84b60:	a9025bf5 	stp	x21, x22, [sp, #32]
   84b64:	aa0003f6 	mov	x22, x0
   84b68:	94000226 	bl	85400 <_ZN4arch3arm5raspi6serial4initEv>
   84b6c:	f941f295 	ldr	x21, [x20, #992]
   84b70:	b94002a0 	ldr	w0, [x21]
   84b74:	34000160 	cbz	w0, 84ba0 <kernel_main+0x50>
   84b78:	52800013 	mov	w19, #0x0                   	// #0
   84b7c:	d503201f 	nop
   84b80:	52800400 	mov	w0, #0x20                  	// #32
   84b84:	9400026b 	bl	85530 <_ZN5stdio4putcEc>
   84b88:	52800400 	mov	w0, #0x20                  	// #32
   84b8c:	94000269 	bl	85530 <_ZN5stdio4putcEc>
   84b90:	b94002a2 	ldr	w2, [x21]
   84b94:	11000673 	add	w19, w19, #0x1
   84b98:	6b13005f 	cmp	w2, w19
   84b9c:	54ffff28 	b.hi	84b80 <kernel_main+0x30>  // b.pmore
   84ba0:	90000020 	adrp	x0, 88000 <__rodata_start>
   84ba4:	9119e000 	add	x0, x0, #0x678
   84ba8:	9400026e 	bl	85560 <_ZN5stdio4putsEPKc>
   84bac:	f941f294 	ldr	x20, [x20, #992]
   84bb0:	aa1603e0 	mov	x0, x22
   84bb4:	b9400281 	ldr	w1, [x20]
   84bb8:	11000421 	add	w1, w1, #0x1
   84bbc:	b9000281 	str	w1, [x20]
   84bc0:	97fffd2c 	bl	84070 <_ZN4arch3arm5raspi5atags4initEPNS2_4AtagE>
   84bc4:	94000107 	bl	84fe0 <_ZN6memory4arch3arm5raspi4initEv>
   84bc8:	97fff11a 	bl	81030 <_ZN4libc4initEv>
   84bcc:	52800002 	mov	w2, #0x0                   	// #0
   84bd0:	52804b01 	mov	w1, #0x258                 	// #600
   84bd4:	52806400 	mov	w0, #0x320                 	// #800
   84bd8:	97fffefe 	bl	847d0 <_ZN11framebuffer4arch3arm5raspi4initEjj17FramebufferFormat>
   84bdc:	52800000 	mov	w0, #0x0                   	// #0
   84be0:	94000390 	bl	85a20 <_ZN4arch3arm5raspi3usb4initEb>
   84be4:	94000553 	bl	86130 <_ZN10exceptions4arch3arm6raspi34initEv>
   84be8:	94000296 	bl	85640 <_ZN5timer4arch3arm5raspi4initEv>
   84bec:	b9400280 	ldr	w0, [x20]
   84bf0:	51000400 	sub	w0, w0, #0x1
   84bf4:	b9000280 	str	w0, [x20]
   84bf8:	34000140 	cbz	w0, 84c20 <kernel_main+0xd0>
   84bfc:	52800013 	mov	w19, #0x0                   	// #0
   84c00:	52800400 	mov	w0, #0x20                  	// #32
   84c04:	9400024b 	bl	85530 <_ZN5stdio4putcEc>
   84c08:	52800400 	mov	w0, #0x20                  	// #32
   84c0c:	94000249 	bl	85530 <_ZN5stdio4putcEc>
   84c10:	b9400280 	ldr	w0, [x20]
   84c14:	11000673 	add	w19, w19, #0x1
   84c18:	6b13001f 	cmp	w0, w19
   84c1c:	54ffff28 	b.hi	84c00 <kernel_main+0xb0>  // b.pmore
   84c20:	90000020 	adrp	x0, 88000 <__rodata_start>
   84c24:	91064000 	add	x0, x0, #0x190
   84c28:	9400024e 	bl	85560 <_ZN5stdio4putsEPKc>
   84c2c:	a94153f3 	ldp	x19, x20, [sp, #16]
   84c30:	a9425bf5 	ldp	x21, x22, [sp, #32]
   84c34:	a8c37bfd 	ldp	x29, x30, [sp], #48
   84c38:	17fff6ca 	b	82760 <_ZN6kernel4arch3arm4initEv>
   84c3c:	00000000 	.inst	0x00000000 ; undefined

0000000000084c40 <_ZN4arch3arm5raspi7mailbox20get_PropertyTag_sizeENS2_11PropertyTagE>:
   84c40:	320e83e2 	mov	w2, #0x40004               	// #262148
   84c44:	2a0003e1 	mov	w1, w0
   84c48:	6b02001f 	cmp	w0, w2
   84c4c:	540001c8 	b.hi	84c84 <_ZN4arch3arm5raspi7mailbox20get_PropertyTag_sizeENS2_11PropertyTagE+0x44>  // b.pmore
   84c50:	52800040 	mov	w0, #0x2                   	// #2
   84c54:	72a00080 	movk	w0, #0x4, lsl #16
   84c58:	6b00003f 	cmp	w1, w0
   84c5c:	54000408 	b.hi	84cdc <_ZN4arch3arm5raspi7mailbox20get_PropertyTag_sizeENS2_11PropertyTagE+0x9c>  // b.pmore
   84c60:	5140e022 	sub	w2, w1, #0x38, lsl #12
   84c64:	52800180 	mov	w0, #0xc                   	// #12
   84c68:	71000842 	subs	w2, w2, #0x2
   84c6c:	540000a0 	b.eq	84c80 <_ZN4arch3arm5raspi7mailbox20get_PropertyTag_sizeENS2_11PropertyTagE+0x40>  // b.none
   84c70:	51410021 	sub	w1, w1, #0x40, lsl #12
   84c74:	71000421 	subs	w1, w1, #0x1
   84c78:	1a9f17e0 	cset	w0, eq  // eq = none
   84c7c:	531d7000 	lsl	w0, w0, #3
   84c80:	d65f03c0 	ret
   84c84:	52900080 	mov	w0, #0x8004                	// #32772
   84c88:	72a00080 	movk	w0, #0x4, lsl #16
   84c8c:	6b00003f 	cmp	w1, w0
   84c90:	540001a8 	b.hi	84cc4 <_ZN4arch3arm5raspi7mailbox20get_PropertyTag_sizeENS2_11PropertyTagE+0x84>  // b.pmore
   84c94:	51000800 	sub	w0, w0, #0x2
   84c98:	6b00003f 	cmp	w1, w0
   84c9c:	54000208 	b.hi	84cdc <_ZN4arch3arm5raspi7mailbox20get_PropertyTag_sizeENS2_11PropertyTagE+0x9c>  // b.pmore
   84ca0:	51410022 	sub	w2, w1, #0x40, lsl #12
   84ca4:	52800080 	mov	w0, #0x4                   	// #4
   84ca8:	71001442 	subs	w2, w2, #0x5
   84cac:	54fffea0 	b.eq	84c80 <_ZN4arch3arm5raspi7mailbox20get_PropertyTag_sizeENS2_11PropertyTagE+0x40>  // b.none
   84cb0:	51410021 	sub	w1, w1, #0x40, lsl #12
   84cb4:	71002021 	subs	w1, w1, #0x8
   84cb8:	1a9f17e0 	cset	w0, eq  // eq = none
   84cbc:	531e7400 	lsl	w0, w0, #2
   84cc0:	d65f03c0 	ret
   84cc4:	51412021 	sub	w1, w1, #0x48, lsl #12
   84cc8:	51001421 	sub	w1, w1, #0x5
   84ccc:	7100083f 	cmp	w1, #0x2
   84cd0:	1a9f27e0 	cset	w0, cc  // cc = lo, ul, last
   84cd4:	531e7400 	lsl	w0, w0, #2
   84cd8:	d65f03c0 	ret
   84cdc:	52800100 	mov	w0, #0x8                   	// #8
   84ce0:	d65f03c0 	ret
   84ce4:	d503201f 	nop
   84ce8:	d503201f 	nop
   84cec:	d503201f 	nop

0000000000084cf0 <_ZN4arch3arm5raspi7mailbox13send_messagesEPNS2_15PropertyMessageE>:
   84cf0:	a9bc7bfd 	stp	x29, x30, [sp, #-64]!
   84cf4:	910003fd 	mov	x29, sp
   84cf8:	a9025bf5 	stp	x21, x22, [sp, #32]
   84cfc:	aa0003f6 	mov	x22, x0
   84d00:	b9400000 	ldr	w0, [x0]
   84d04:	a90153f3 	stp	x19, x20, [sp, #16]
   84d08:	f9001bf7 	str	x23, [sp, #48]
   84d0c:	340013a0 	cbz	w0, 84f80 <_ZN4arch3arm5raspi7mailbox13send_messagesEPNS2_15PropertyMessageE+0x290>
   84d10:	aa1603f4 	mov	x20, x22
   84d14:	52800013 	mov	w19, #0x0                   	// #0
   84d18:	97ffffca 	bl	84c40 <_ZN4arch3arm5raspi7mailbox20get_PropertyTag_sizeENS2_11PropertyTagE>
   84d1c:	2a0003e1 	mov	w1, w0
   84d20:	b8414e80 	ldr	w0, [x20, #20]!
   84d24:	11003021 	add	w1, w1, #0xc
   84d28:	0b010273 	add	w19, w19, w1
   84d2c:	35ffff60 	cbnz	w0, 84d18 <_ZN4arch3arm5raspi7mailbox13send_messagesEPNS2_15PropertyMessageE+0x28>
   84d30:	11003263 	add	w3, w19, #0xc
   84d34:	72000c60 	ands	w0, w3, #0xf
   84d38:	54000bc1 	b.ne	84eb0 <_ZN4arch3arm5raspi7mailbox13send_messagesEPNS2_15PropertyMessageE+0x1c0>  // b.any
   84d3c:	b94002c1 	ldr	w1, [x22]
   84d40:	11006e62 	add	w2, w19, #0x1b
   84d44:	91003c42 	add	x2, x2, #0xf
   84d48:	2a0103e0 	mov	w0, w1
   84d4c:	927c7041 	and	x1, x2, #0x1fffffff0
   84d50:	cb2163ff 	sub	sp, sp, x1
   84d54:	910003e1 	mov	x1, sp
   84d58:	91004035 	add	x21, x1, #0x10
   84d5c:	b9001023 	str	w3, [x1, #16]
   84d60:	b90006bf 	str	wzr, [x21, #4]
   84d64:	34000de0 	cbz	w0, 84f20 <_ZN4arch3arm5raspi7mailbox13send_messagesEPNS2_15PropertyMessageE+0x230>
   84d68:	910012d7 	add	x23, x22, #0x4
   84d6c:	52800013 	mov	w19, #0x0                   	// #0
   84d70:	97ffffb4 	bl	84c40 <_ZN4arch3arm5raspi7mailbox20get_PropertyTag_sizeENS2_11PropertyTagE>
   84d74:	2a0003f4 	mov	w20, w0
   84d78:	11000662 	add	w2, w19, #0x1
   84d7c:	8b334aa5 	add	x5, x21, w19, uxtw #2
   84d80:	11000a63 	add	w3, w19, #0x2
   84d84:	b85fc2e6 	ldur	w6, [x23, #-4]
   84d88:	8b020aa2 	add	x2, x21, x2, lsl #2
   84d8c:	11000e64 	add	w4, w19, #0x3
   84d90:	8b030aa3 	add	x3, x21, x3, lsl #2
   84d94:	b90008a6 	str	w6, [x5, #8]
   84d98:	91000884 	add	x4, x4, #0x2
   84d9c:	aa1703e1 	mov	x1, x23
   84da0:	b9000854 	str	w20, [x2, #8]
   84da4:	910052f7 	add	x23, x23, #0x14
   84da8:	b900087f 	str	wzr, [x3, #8]
   84dac:	8b040aa0 	add	x0, x21, x4, lsl #2
   84db0:	2a1403e2 	mov	w2, w20
   84db4:	11000e73 	add	w19, w19, #0x3
   84db8:	9400052a 	bl	86260 <_Z6memcpyPvS_i>
   84dbc:	0b540a73 	add	w19, w19, w20, lsr #2
   84dc0:	b85fc2e0 	ldur	w0, [x23, #-4]
   84dc4:	35fffd60 	cbnz	w0, 84d70 <_ZN4arch3arm5raspi7mailbox13send_messagesEPNS2_15PropertyMessageE+0x80>
   84dc8:	8b334ab3 	add	x19, x21, w19, uxtw #2
   84dcc:	b9000a7f 	str	wzr, [x19, #8]
   84dd0:	d344fea3 	lsr	x3, x21, #4
   84dd4:	d2971301 	mov	x1, #0xb898                	// #47256
   84dd8:	f2a7e001 	movk	x1, #0x3f00, lsl #16
   84ddc:	531c6c63 	lsl	w3, w3, #4
   84de0:	321d0063 	orr	w3, w3, #0x8
   84de4:	d503201f 	nop
   84de8:	b9400020 	ldr	w0, [x1]
   84dec:	37ffffe0 	tbnz	w0, #31, 84de8 <_ZN4arch3arm5raspi7mailbox13send_messagesEPNS2_15PropertyMessageE+0xf8>
   84df0:	d2971400 	mov	x0, #0xb8a0                	// #47264
   84df4:	f2a7e000 	movk	x0, #0x3f00, lsl #16
   84df8:	d2971302 	mov	x2, #0xb898                	// #47256
   84dfc:	f2a7e002 	movk	x2, #0x3f00, lsl #16
   84e00:	d2971004 	mov	x4, #0xb880                	// #47232
   84e04:	f2a7e004 	movk	x4, #0x3f00, lsl #16
   84e08:	b9000003 	str	w3, [x0]
   84e0c:	d503201f 	nop
   84e10:	52800033 	mov	w19, #0x1                   	// #1
   84e14:	72a04013 	movk	w19, #0x200, lsl #16
   84e18:	14000003 	b	84e24 <_ZN4arch3arm5raspi7mailbox13send_messagesEPNS2_15PropertyMessageE+0x134>
   84e1c:	71000673 	subs	w19, w19, #0x1
   84e20:	54000840 	b.eq	84f28 <_ZN4arch3arm5raspi7mailbox13send_messagesEPNS2_15PropertyMessageE+0x238>  // b.none
   84e24:	b9400041 	ldr	w1, [x2]
   84e28:	12020034 	and	w20, w1, #0x40000000
   84e2c:	37f7ff81 	tbnz	w1, #30, 84e1c <_ZN4arch3arm5raspi7mailbox13send_messagesEPNS2_15PropertyMessageE+0x12c>
   84e30:	b9400080 	ldr	w0, [x4]
   84e34:	12000c00 	and	w0, w0, #0xf
   84e38:	7100201f 	cmp	w0, #0x8
   84e3c:	54fffea1 	b.ne	84e10 <_ZN4arch3arm5raspi7mailbox13send_messagesEPNS2_15PropertyMessageE+0x120>  // b.any
   84e40:	b94006b3 	ldr	w19, [x21, #4]
   84e44:	34000413 	cbz	w19, 84ec4 <_ZN4arch3arm5raspi7mailbox13send_messagesEPNS2_15PropertyMessageE+0x1d4>
   84e48:	320107e0 	mov	w0, #0x80000001            	// #-2147483647
   84e4c:	6b00027f 	cmp	w19, w0
   84e50:	54000a00 	b.eq	84f90 <_ZN4arch3arm5raspi7mailbox13send_messagesEPNS2_15PropertyMessageE+0x2a0>  // b.none
   84e54:	b84046c0 	ldr	w0, [x22], #4
   84e58:	340001e0 	cbz	w0, 84e94 <_ZN4arch3arm5raspi7mailbox13send_messagesEPNS2_15PropertyMessageE+0x1a4>
   84e5c:	d503201f 	nop
   84e60:	97ffff78 	bl	84c40 <_ZN4arch3arm5raspi7mailbox20get_PropertyTag_sizeENS2_11PropertyTagE>
   84e64:	2a0003f3 	mov	w19, w0
   84e68:	11000e81 	add	w1, w20, #0x3
   84e6c:	aa1603e0 	mov	x0, x22
   84e70:	91000821 	add	x1, x1, #0x2
   84e74:	910052d6 	add	x22, x22, #0x14
   84e78:	2a1303e2 	mov	w2, w19
   84e7c:	11000e94 	add	w20, w20, #0x3
   84e80:	8b010aa1 	add	x1, x21, x1, lsl #2
   84e84:	940004f7 	bl	86260 <_Z6memcpyPvS_i>
   84e88:	b85fc2c0 	ldur	w0, [x22, #-4]
   84e8c:	0b530a94 	add	w20, w20, w19, lsr #2
   84e90:	35fffe80 	cbnz	w0, 84e60 <_ZN4arch3arm5raspi7mailbox13send_messagesEPNS2_15PropertyMessageE+0x170>
   84e94:	52800020 	mov	w0, #0x1                   	// #1
   84e98:	910003bf 	mov	sp, x29
   84e9c:	a94153f3 	ldp	x19, x20, [sp, #16]
   84ea0:	a9425bf5 	ldp	x21, x22, [sp, #32]
   84ea4:	f9401bf7 	ldr	x23, [sp, #48]
   84ea8:	a8c47bfd 	ldp	x29, x30, [sp], #64
   84eac:	d65f03c0 	ret
   84eb0:	11007273 	add	w19, w19, #0x1c
   84eb4:	b94002c1 	ldr	w1, [x22]
   84eb8:	4b000263 	sub	w3, w19, w0
   84ebc:	11003c62 	add	w2, w3, #0xf
   84ec0:	17ffffa1 	b	84d44 <_ZN4arch3arm5raspi7mailbox13send_messagesEPNS2_15PropertyMessageE+0x54>
   84ec4:	90000240 	adrp	x0, cc000 <_ZN10graphics2d4font12_GLOBAL__N_110bufferDataE+0x20c78>
   84ec8:	f941f014 	ldr	x20, [x0, #992]
   84ecc:	b9400280 	ldr	w0, [x20]
   84ed0:	34000140 	cbz	w0, 84ef8 <_ZN4arch3arm5raspi7mailbox13send_messagesEPNS2_15PropertyMessageE+0x208>
   84ed4:	d503201f 	nop
   84ed8:	52800400 	mov	w0, #0x20                  	// #32
   84edc:	94000195 	bl	85530 <_ZN5stdio4putcEc>
   84ee0:	52800400 	mov	w0, #0x20                  	// #32
   84ee4:	94000193 	bl	85530 <_ZN5stdio4putcEc>
   84ee8:	b9400281 	ldr	w1, [x20]
   84eec:	11000673 	add	w19, w19, #0x1
   84ef0:	6b13003f 	cmp	w1, w19
   84ef4:	54ffff28 	b.hi	84ed8 <_ZN4arch3arm5raspi7mailbox13send_messagesEPNS2_15PropertyMessageE+0x1e8>  // b.pmore
   84ef8:	90000020 	adrp	x0, 88000 <__rodata_start>
   84efc:	911b0000 	add	x0, x0, #0x6c0
   84f00:	94000198 	bl	85560 <_ZN5stdio4putsEPKc>
   84f04:	910003bf 	mov	sp, x29
   84f08:	52800000 	mov	w0, #0x0                   	// #0
   84f0c:	a94153f3 	ldp	x19, x20, [sp, #16]
   84f10:	a9425bf5 	ldp	x21, x22, [sp, #32]
   84f14:	f9401bf7 	ldr	x23, [sp, #48]
   84f18:	a8c47bfd 	ldp	x29, x30, [sp], #64
   84f1c:	d65f03c0 	ret
   84f20:	52800013 	mov	w19, #0x0                   	// #0
   84f24:	17ffffa9 	b	84dc8 <_ZN4arch3arm5raspi7mailbox13send_messagesEPNS2_15PropertyMessageE+0xd8>
   84f28:	90000240 	adrp	x0, cc000 <_ZN10graphics2d4font12_GLOBAL__N_110bufferDataE+0x20c78>
   84f2c:	f941f014 	ldr	x20, [x0, #992]
   84f30:	b9400280 	ldr	w0, [x20]
   84f34:	34000120 	cbz	w0, 84f58 <_ZN4arch3arm5raspi7mailbox13send_messagesEPNS2_15PropertyMessageE+0x268>
   84f38:	52800400 	mov	w0, #0x20                  	// #32
   84f3c:	9400017d 	bl	85530 <_ZN5stdio4putcEc>
   84f40:	52800400 	mov	w0, #0x20                  	// #32
   84f44:	9400017b 	bl	85530 <_ZN5stdio4putcEc>
   84f48:	b9400281 	ldr	w1, [x20]
   84f4c:	11000673 	add	w19, w19, #0x1
   84f50:	6b13003f 	cmp	w1, w19
   84f54:	54ffff28 	b.hi	84f38 <_ZN4arch3arm5raspi7mailbox13send_messagesEPNS2_15PropertyMessageE+0x248>  // b.pmore
   84f58:	90000020 	adrp	x0, 88000 <__rodata_start>
   84f5c:	911a8000 	add	x0, x0, #0x6a0
   84f60:	94000180 	bl	85560 <_ZN5stdio4putsEPKc>
   84f64:	910003bf 	mov	sp, x29
   84f68:	52800000 	mov	w0, #0x0                   	// #0
   84f6c:	a94153f3 	ldp	x19, x20, [sp, #16]
   84f70:	a9425bf5 	ldp	x21, x22, [sp, #32]
   84f74:	f9401bf7 	ldr	x23, [sp, #48]
   84f78:	a8c47bfd 	ldp	x29, x30, [sp], #64
   84f7c:	d65f03c0 	ret
   84f80:	2a0003e1 	mov	w1, w0
   84f84:	d28003e2 	mov	x2, #0x1f                  	// #31
   84f88:	52800203 	mov	w3, #0x10                  	// #16
   84f8c:	17ffff6e 	b	84d44 <_ZN4arch3arm5raspi7mailbox13send_messagesEPNS2_15PropertyMessageE+0x54>
   84f90:	90000240 	adrp	x0, cc000 <_ZN10graphics2d4font12_GLOBAL__N_110bufferDataE+0x20c78>
   84f94:	f941f013 	ldr	x19, [x0, #992]
   84f98:	b9400260 	ldr	w0, [x19]
   84f9c:	34000120 	cbz	w0, 84fc0 <_ZN4arch3arm5raspi7mailbox13send_messagesEPNS2_15PropertyMessageE+0x2d0>
   84fa0:	52800400 	mov	w0, #0x20                  	// #32
   84fa4:	94000163 	bl	85530 <_ZN5stdio4putcEc>
   84fa8:	52800400 	mov	w0, #0x20                  	// #32
   84fac:	94000161 	bl	85530 <_ZN5stdio4putcEc>
   84fb0:	b9400261 	ldr	w1, [x19]
   84fb4:	11000694 	add	w20, w20, #0x1
   84fb8:	6b14003f 	cmp	w1, w20
   84fbc:	54ffff28 	b.hi	84fa0 <_ZN4arch3arm5raspi7mailbox13send_messagesEPNS2_15PropertyMessageE+0x2b0>  // b.pmore
   84fc0:	90000020 	adrp	x0, 88000 <__rodata_start>
   84fc4:	911be000 	add	x0, x0, #0x6f8
   84fc8:	94000166 	bl	85560 <_ZN5stdio4putsEPKc>
   84fcc:	52800000 	mov	w0, #0x0                   	// #0
   84fd0:	17ffffb2 	b	84e98 <_ZN4arch3arm5raspi7mailbox13send_messagesEPNS2_15PropertyMessageE+0x1a8>
	...

0000000000084fe0 <_ZN6memory4arch3arm5raspi4initEv>:
   84fe0:	a9bc7bfd 	stp	x29, x30, [sp, #-64]!
   84fe4:	910003fd 	mov	x29, sp
   84fe8:	a90153f3 	stp	x19, x20, [sp, #16]
   84fec:	90000253 	adrp	x19, cc000 <_ZN10graphics2d4font12_GLOBAL__N_110bufferDataE+0x20c78>
   84ff0:	52800014 	mov	w20, #0x0                   	// #0
   84ff4:	a9025bf5 	stp	x21, x22, [sp, #32]
   84ff8:	f941f275 	ldr	x21, [x19, #992]
   84ffc:	a90363f7 	stp	x23, x24, [sp, #48]
   85000:	b94002a0 	ldr	w0, [x21]
   85004:	34000120 	cbz	w0, 85028 <_ZN6memory4arch3arm5raspi4initEv+0x48>
   85008:	52800400 	mov	w0, #0x20                  	// #32
   8500c:	94000149 	bl	85530 <_ZN5stdio4putcEc>
   85010:	52800400 	mov	w0, #0x20                  	// #32
   85014:	94000147 	bl	85530 <_ZN5stdio4putcEc>
   85018:	b94002a1 	ldr	w1, [x21]
   8501c:	11000694 	add	w20, w20, #0x1
   85020:	6b14003f 	cmp	w1, w20
   85024:	54ffff28 	b.hi	85008 <_ZN6memory4arch3arm5raspi4initEv+0x28>  // b.pmore
   85028:	f0000000 	adrp	x0, 88000 <__rodata_start>
   8502c:	911c8000 	add	x0, x0, #0x720
   85030:	9400014c 	bl	85560 <_ZN5stdio4putsEPKc>
   85034:	f941e661 	ldr	x1, [x19, #968]
   85038:	f941f275 	ldr	x21, [x19, #992]
   8503c:	b9400021 	ldr	w1, [x1]
   85040:	b94002a0 	ldr	w0, [x21]
   85044:	11000400 	add	w0, w0, #0x1
   85048:	b90002a0 	str	w0, [x21]
   8504c:	b40019c1 	cbz	x1, 85384 <_ZN6memory4arch3arm5raspi4initEv+0x3a4>
   85050:	f9417262 	ldr	x2, [x19, #736]
   85054:	f9000041 	str	x1, [x2]
   85058:	f941f275 	ldr	x21, [x19, #992]
   8505c:	52800014 	mov	w20, #0x0                   	// #0
   85060:	34000140 	cbz	w0, 85088 <_ZN6memory4arch3arm5raspi4initEv+0xa8>
   85064:	d503201f 	nop
   85068:	52800400 	mov	w0, #0x20                  	// #32
   8506c:	94000131 	bl	85530 <_ZN5stdio4putcEc>
   85070:	52800400 	mov	w0, #0x20                  	// #32
   85074:	9400012f 	bl	85530 <_ZN5stdio4putcEc>
   85078:	b94002a1 	ldr	w1, [x21]
   8507c:	11000694 	add	w20, w20, #0x1
   85080:	6b14003f 	cmp	w1, w20
   85084:	54ffff28 	b.hi	85068 <_ZN6memory4arch3arm5raspi4initEv+0x88>  // b.pmore
   85088:	f0000000 	adrp	x0, 88000 <__rodata_start>
   8508c:	911de000 	add	x0, x0, #0x778
   85090:	94000134 	bl	85560 <_ZN5stdio4putsEPKc>
   85094:	52800080 	mov	w0, #0x4                   	// #4
   85098:	940004b6 	bl	86370 <_Z9to_stringj>
   8509c:	94000131 	bl	85560 <_ZN5stdio4putsEPKc>
   850a0:	f0000016 	adrp	x22, 88000 <__rodata_start>
   850a4:	911e22c0 	add	x0, x22, #0x788
   850a8:	9400012e 	bl	85560 <_ZN5stdio4putsEPKc>
   850ac:	f941f275 	ldr	x21, [x19, #992]
   850b0:	b94002a0 	ldr	w0, [x21]
   850b4:	34000160 	cbz	w0, 850e0 <_ZN6memory4arch3arm5raspi4initEv+0x100>
   850b8:	52800014 	mov	w20, #0x0                   	// #0
   850bc:	d503201f 	nop
   850c0:	52800400 	mov	w0, #0x20                  	// #32
   850c4:	9400011b 	bl	85530 <_ZN5stdio4putcEc>
   850c8:	52800400 	mov	w0, #0x20                  	// #32
   850cc:	94000119 	bl	85530 <_ZN5stdio4putcEc>
   850d0:	b94002a1 	ldr	w1, [x21]
   850d4:	11000694 	add	w20, w20, #0x1
   850d8:	6b14003f 	cmp	w1, w20
   850dc:	54ffff28 	b.hi	850c0 <_ZN6memory4arch3arm5raspi4initEv+0xe0>  // b.pmore
   850e0:	f0000000 	adrp	x0, 88000 <__rodata_start>
   850e4:	911e4000 	add	x0, x0, #0x790
   850e8:	9400011e 	bl	85560 <_ZN5stdio4putsEPKc>
   850ec:	52800514 	mov	w20, #0x28                  	// #40
   850f0:	d2800080 	mov	x0, #0x4                   	// #4
   850f4:	940004cf 	bl	86430 <_Z9to_stringm>
   850f8:	9400011a 	bl	85560 <_ZN5stdio4putsEPKc>
   850fc:	911e22c0 	add	x0, x22, #0x788
   85100:	94000118 	bl	85560 <_ZN5stdio4putsEPKc>
   85104:	f9417261 	ldr	x1, [x19, #736]
   85108:	f9419267 	ldr	x7, [x19, #800]
   8510c:	aa0103e0 	mov	x0, x1
   85110:	f9416661 	ldr	x1, [x19, #712]
   85114:	914004e7 	add	x7, x7, #0x1, lsl #12
   85118:	f9400016 	ldr	x22, [x0]
   8511c:	913ffce2 	add	x2, x7, #0xfff
   85120:	f941be60 	ldr	x0, [x19, #888]
   85124:	f9000027 	str	x7, [x1]
   85128:	d34cfed6 	lsr	x22, x22, #12
   8512c:	1b147ed4 	mul	w20, w22, w20
   85130:	113ffe94 	add	w20, w20, #0xfff
   85134:	12144e94 	and	w20, w20, #0xfffff000
   85138:	b9000014 	str	w20, [x0]
   8513c:	8b344054 	add	x20, x2, w20, uxtw
   85140:	d34cfe94 	lsr	x20, x20, #12
   85144:	eb1402df 	cmp	x22, x20
   85148:	9a9422d6 	csel	x22, x22, x20, cs  // cs = hs, nlast
   8514c:	cb1402d5 	sub	x21, x22, x20
   85150:	b40014d4 	cbz	x20, 853e8 <_ZN6memory4arch3arm5raspi4initEv+0x408>
   85154:	52800005 	mov	w5, #0x0                   	// #0
   85158:	52800004 	mov	w4, #0x0                   	// #0
   8515c:	d2800001 	mov	x1, #0x0                   	// #0
   85160:	d2800509 	mov	x9, #0x28                  	// #40
   85164:	d503201f 	nop
   85168:	9b097c26 	mul	x6, x1, x9
   8516c:	11000484 	add	w4, w4, #0x1
   85170:	d374cc28 	lsl	x8, x1, #12
   85174:	2a0403e1 	mov	w1, w4
   85178:	8b0600e3 	add	x3, x7, x6
   8517c:	eb14003f 	cmp	x1, x20
   85180:	1a9f27e2 	cset	w2, cc  // cc = lo, ul, last
   85184:	f82668ff 	str	xzr, [x7, x6]
   85188:	531e7440 	lsl	w0, w2, #2
   8518c:	f900047f 	str	xzr, [x3, #8]
   85190:	39408062 	ldrb	w2, [x3, #32]
   85194:	32000400 	orr	w0, w0, #0x3
   85198:	b9001065 	str	w5, [x3, #16]
   8519c:	114004a5 	add	w5, w5, #0x1, lsl #12
   851a0:	121d7042 	and	w2, w2, #0xfffffff8
   851a4:	f9000c68 	str	x8, [x3, #24]
   851a8:	2a020000 	orr	w0, w0, w2
   851ac:	39008060 	strb	w0, [x3, #32]
   851b0:	54fffdc3 	b.cc	85168 <_ZN6memory4arch3arm5raspi4initEv+0x188>  // b.lo, b.ul, b.last
   851b4:	eb0102df 	cmp	x22, x1
   851b8:	54000489 	b.ls	85248 <_ZN6memory4arch3arm5raspi4initEv+0x268>  // b.plast
   851bc:	f9416269 	ldr	x9, [x19, #704]
   851c0:	2a0403e3 	mov	w3, w4
   851c4:	f941926b 	ldr	x11, [x19, #800]
   851c8:	d280050e 	mov	x14, #0x28                  	// #40
   851cc:	b940112f 	ldr	w15, [x9, #16]
   851d0:	9140056b 	add	x11, x11, #0x1, lsl #12
   851d4:	f9400522 	ldr	x2, [x9, #8]
   851d8:	14000003 	b	851e4 <_ZN6memory4arch3arm5raspi4initEv+0x204>
   851dc:	b9001125 	str	w5, [x9, #16]
   851e0:	54000342 	b.cs	85248 <_ZN6memory4arch3arm5raspi4initEv+0x268>  // b.hs, b.nlast
   851e4:	9b0e7c2a 	mul	x10, x1, x14
   851e8:	aa0203e8 	mov	x8, x2
   851ec:	11000463 	add	w3, w3, #0x1
   851f0:	d374cc2d 	lsl	x13, x1, #12
   851f4:	8b0b0142 	add	x2, x10, x11
   851f8:	2a0303e1 	mov	w1, w3
   851fc:	eb16003f 	cmp	x1, x22
   85200:	0b0f0065 	add	w5, w3, w15
   85204:	1a9f27e6 	cset	w6, cc  // cc = lo, ul, last
   85208:	4b0400a5 	sub	w5, w5, w4
   8520c:	39408047 	ldrb	w7, [x2, #32]
   85210:	f9000c4d 	str	x13, [x2, #24]
   85214:	121d70e0 	and	w0, w7, #0xfffffff8
   85218:	2a060800 	orr	w0, w0, w6, lsl #2
   8521c:	39008040 	strb	w0, [x2, #32]
   85220:	f940012c 	ldr	x12, [x9]
   85224:	b4000048 	cbz	x8, 8522c <_ZN6memory4arch3arm5raspi4initEv+0x24c>
   85228:	f9000102 	str	x2, [x8]
   8522c:	f9000448 	str	x8, [x2, #8]
   85230:	f82b695f 	str	xzr, [x10, x11]
   85234:	f9000522 	str	x2, [x9, #8]
   85238:	b5fffd2c 	cbnz	x12, 851dc <_ZN6memory4arch3arm5raspi4initEv+0x1fc>
   8523c:	f9000122 	str	x2, [x9]
   85240:	b9001125 	str	w5, [x9, #16]
   85244:	54fffd03 	b.cc	851e4 <_ZN6memory4arch3arm5raspi4initEv+0x204>  // b.lo, b.ul, b.last
   85248:	f941f278 	ldr	x24, [x19, #992]
   8524c:	52800017 	mov	w23, #0x0                   	// #0
   85250:	b9400300 	ldr	w0, [x24]
   85254:	34000120 	cbz	w0, 85278 <_ZN6memory4arch3arm5raspi4initEv+0x298>
   85258:	52800400 	mov	w0, #0x20                  	// #32
   8525c:	940000b5 	bl	85530 <_ZN5stdio4putcEc>
   85260:	52800400 	mov	w0, #0x20                  	// #32
   85264:	940000b3 	bl	85530 <_ZN5stdio4putcEc>
   85268:	b9400301 	ldr	w1, [x24]
   8526c:	110006f7 	add	w23, w23, #0x1
   85270:	6b17003f 	cmp	w1, w23
   85274:	54ffff28 	b.hi	85258 <_ZN6memory4arch3arm5raspi4initEv+0x278>  // b.pmore
   85278:	f0000000 	adrp	x0, 88000 <__rodata_start>
   8527c:	911e8000 	add	x0, x0, #0x7a0
   85280:	940000b8 	bl	85560 <_ZN5stdio4putsEPKc>
   85284:	aa1603e0 	mov	x0, x22
   85288:	9400046a 	bl	86430 <_Z9to_stringm>
   8528c:	940000b5 	bl	85560 <_ZN5stdio4putsEPKc>
   85290:	f0000000 	adrp	x0, 88000 <__rodata_start>
   85294:	91138000 	add	x0, x0, #0x4e0
   85298:	940000b2 	bl	85560 <_ZN5stdio4putsEPKc>
   8529c:	f941f277 	ldr	x23, [x19, #992]
   852a0:	b94002e0 	ldr	w0, [x23]
   852a4:	34000160 	cbz	w0, 852d0 <_ZN6memory4arch3arm5raspi4initEv+0x2f0>
   852a8:	52800016 	mov	w22, #0x0                   	// #0
   852ac:	d503201f 	nop
   852b0:	52800400 	mov	w0, #0x20                  	// #32
   852b4:	9400009f 	bl	85530 <_ZN5stdio4putcEc>
   852b8:	52800400 	mov	w0, #0x20                  	// #32
   852bc:	9400009d 	bl	85530 <_ZN5stdio4putcEc>
   852c0:	b94002e1 	ldr	w1, [x23]
   852c4:	110006d6 	add	w22, w22, #0x1
   852c8:	6b16003f 	cmp	w1, w22
   852cc:	54ffff28 	b.hi	852b0 <_ZN6memory4arch3arm5raspi4initEv+0x2d0>  // b.pmore
   852d0:	aa1403e0 	mov	x0, x20
   852d4:	94000457 	bl	86430 <_Z9to_stringm>
   852d8:	940000a2 	bl	85560 <_ZN5stdio4putsEPKc>
   852dc:	f0000000 	adrp	x0, 88000 <__rodata_start>
   852e0:	911ea000 	add	x0, x0, #0x7a8
   852e4:	9400009f 	bl	85560 <_ZN5stdio4putsEPKc>
   852e8:	f941f276 	ldr	x22, [x19, #992]
   852ec:	b94002c0 	ldr	w0, [x22]
   852f0:	34000140 	cbz	w0, 85318 <_ZN6memory4arch3arm5raspi4initEv+0x338>
   852f4:	52800014 	mov	w20, #0x0                   	// #0
   852f8:	52800400 	mov	w0, #0x20                  	// #32
   852fc:	9400008d 	bl	85530 <_ZN5stdio4putcEc>
   85300:	52800400 	mov	w0, #0x20                  	// #32
   85304:	9400008b 	bl	85530 <_ZN5stdio4putcEc>
   85308:	b94002c1 	ldr	w1, [x22]
   8530c:	11000694 	add	w20, w20, #0x1
   85310:	6b14003f 	cmp	w1, w20
   85314:	54ffff28 	b.hi	852f8 <_ZN6memory4arch3arm5raspi4initEv+0x318>  // b.pmore
   85318:	aa1503e0 	mov	x0, x21
   8531c:	94000445 	bl	86430 <_Z9to_stringm>
   85320:	94000090 	bl	85560 <_ZN5stdio4putsEPKc>
   85324:	f0000000 	adrp	x0, 88000 <__rodata_start>
   85328:	911ee000 	add	x0, x0, #0x7b8
   8532c:	9400008d 	bl	85560 <_ZN5stdio4putsEPKc>
   85330:	f941f273 	ldr	x19, [x19, #992]
   85334:	b9400260 	ldr	w0, [x19]
   85338:	51000400 	sub	w0, w0, #0x1
   8533c:	b9000260 	str	w0, [x19]
   85340:	34000140 	cbz	w0, 85368 <_ZN6memory4arch3arm5raspi4initEv+0x388>
   85344:	52800014 	mov	w20, #0x0                   	// #0
   85348:	52800400 	mov	w0, #0x20                  	// #32
   8534c:	94000079 	bl	85530 <_ZN5stdio4putcEc>
   85350:	52800400 	mov	w0, #0x20                  	// #32
   85354:	94000077 	bl	85530 <_ZN5stdio4putcEc>
   85358:	b9400261 	ldr	w1, [x19]
   8535c:	11000694 	add	w20, w20, #0x1
   85360:	6b14003f 	cmp	w1, w20
   85364:	54ffff28 	b.hi	85348 <_ZN6memory4arch3arm5raspi4initEv+0x368>  // b.pmore
   85368:	a94153f3 	ldp	x19, x20, [sp, #16]
   8536c:	f0000000 	adrp	x0, 88000 <__rodata_start>
   85370:	91064000 	add	x0, x0, #0x190
   85374:	a9425bf5 	ldp	x21, x22, [sp, #32]
   85378:	a94363f7 	ldp	x23, x24, [sp, #48]
   8537c:	a8c47bfd 	ldp	x29, x30, [sp], #64
   85380:	14000078 	b	85560 <_ZN5stdio4putsEPKc>
   85384:	f9417261 	ldr	x1, [x19, #736]
   85388:	d2a80002 	mov	x2, #0x40000000            	// #1073741824
   8538c:	52800014 	mov	w20, #0x0                   	// #0
   85390:	f9000022 	str	x2, [x1]
   85394:	34000120 	cbz	w0, 853b8 <_ZN6memory4arch3arm5raspi4initEv+0x3d8>
   85398:	52800400 	mov	w0, #0x20                  	// #32
   8539c:	94000065 	bl	85530 <_ZN5stdio4putcEc>
   853a0:	52800400 	mov	w0, #0x20                  	// #32
   853a4:	94000063 	bl	85530 <_ZN5stdio4putcEc>
   853a8:	b94002a1 	ldr	w1, [x21]
   853ac:	11000694 	add	w20, w20, #0x1
   853b0:	6b14003f 	cmp	w1, w20
   853b4:	54ffff28 	b.hi	85398 <_ZN6memory4arch3arm5raspi4initEv+0x3b8>  // b.pmore
   853b8:	f0000000 	adrp	x0, 88000 <__rodata_start>
   853bc:	911d2000 	add	x0, x0, #0x748
   853c0:	94000068 	bl	85560 <_ZN5stdio4putsEPKc>
   853c4:	d2808000 	mov	x0, #0x400                 	// #1024
   853c8:	9400041a 	bl	86430 <_Z9to_stringm>
   853cc:	94000065 	bl	85560 <_ZN5stdio4putsEPKc>
   853d0:	f0000000 	adrp	x0, 88000 <__rodata_start>
   853d4:	91144000 	add	x0, x0, #0x510
   853d8:	94000062 	bl	85560 <_ZN5stdio4putsEPKc>
   853dc:	f941f260 	ldr	x0, [x19, #992]
   853e0:	b9400000 	ldr	w0, [x0]
   853e4:	17ffff1d 	b	85058 <_ZN6memory4arch3arm5raspi4initEv+0x78>
   853e8:	d2800001 	mov	x1, #0x0                   	// #0
   853ec:	52800004 	mov	w4, #0x0                   	// #0
   853f0:	17ffff71 	b	851b4 <_ZN6memory4arch3arm5raspi4initEv+0x1d4>
	...

0000000000085400 <_ZN4arch3arm5raspi6serial4initEv>:
   85400:	a9bb7bfd 	stp	x29, x30, [sp, #-80]!
   85404:	d2900042 	mov	x2, #0x8002                	// #32770
   85408:	f2a00062 	movk	x2, #0x3, lsl #16
   8540c:	910003fd 	mov	x29, sp
   85410:	f9000bf3 	str	x19, [sp, #16]
   85414:	d2820613 	mov	x19, #0x1030                	// #4144
   85418:	f2a7e413 	movk	x19, #0x3f20, lsl #16
   8541c:	f2c00042 	movk	x2, #0x2, lsl #32
   85420:	d2812001 	mov	x1, #0x900                 	// #2304
   85424:	f2a007a1 	movk	x1, #0x3d, lsl #16
   85428:	b900027f 	str	wzr, [x19]
   8542c:	9100a3e0 	add	x0, sp, #0x28
   85430:	a90287e2 	stp	x2, x1, [sp, #40]
   85434:	b9003fff 	str	wzr, [sp, #60]
   85438:	97fffe2e 	bl	84cf0 <_ZN4arch3arm5raspi7mailbox13send_messagesEPNS2_15PropertyMessageE>
   8543c:	d2801282 	mov	x2, #0x94                  	// #148
   85440:	f2a7e402 	movk	x2, #0x3f20, lsl #16
   85444:	528012c0 	mov	w0, #0x96                  	// #150
   85448:	2a0003e1 	mov	w1, w0
   8544c:	b900005f 	str	wzr, [x2]

0000000000085450 <__delay_27>:
   85450:	f1000421 	subs	x1, x1, #0x1
   85454:	54ffffe1 	b.ne	85450 <__delay_27>  // b.any
   85458:	d2801301 	mov	x1, #0x98                  	// #152
   8545c:	f2a7e401 	movk	x1, #0x3f20, lsl #16
   85460:	52980002 	mov	w2, #0xc000                	// #49152
   85464:	b9000022 	str	w2, [x1]

0000000000085468 <__delay_32>:
   85468:	f1000400 	subs	x0, x0, #0x1
   8546c:	54ffffe1 	b.ne	85468 <__delay_32>  // b.any
   85470:	d2820883 	mov	x3, #0x1044                	// #4164
   85474:	f2a7e403 	movk	x3, #0x3f20, lsl #16
   85478:	d2820480 	mov	x0, #0x1024                	// #4132
   8547c:	f2a7e400 	movk	x0, #0x3f20, lsl #16
   85480:	b900003f 	str	wzr, [x1]
   85484:	d2820502 	mov	x2, #0x1028                	// #4136
   85488:	f2a7e402 	movk	x2, #0x3f20, lsl #16
   8548c:	5280ffe1 	mov	w1, #0x7ff                 	// #2047
   85490:	b9000061 	str	w1, [x3]
   85494:	52800023 	mov	w3, #0x1                   	// #1
   85498:	d2820581 	mov	x1, #0x102c                	// #4140
   8549c:	f2a7e401 	movk	x1, #0x3f20, lsl #16
   854a0:	b9000003 	str	w3, [x0]
   854a4:	52800503 	mov	w3, #0x28                  	// #40
   854a8:	b9000043 	str	w3, [x2]
   854ac:	52800e02 	mov	w2, #0x70                  	// #112
   854b0:	b9000022 	str	w2, [x1]
   854b4:	5280fe41 	mov	w1, #0x7f2                 	// #2034
   854b8:	f0000002 	adrp	x2, 88000 <__rodata_start>
   854bc:	911f2042 	add	x2, x2, #0x7c8
   854c0:	b9001401 	str	w1, [x0, #20]
   854c4:	d2820004 	mov	x4, #0x1000                	// #4096
   854c8:	f2a7e404 	movk	x4, #0x3f20, lsl #16
   854cc:	52806020 	mov	w0, #0x301                 	// #769
   854d0:	d2820301 	mov	x1, #0x1018                	// #4120
   854d4:	f2a7e401 	movk	x1, #0x3f20, lsl #16
   854d8:	52800c23 	mov	w3, #0x61                  	// #97
   854dc:	b9000260 	str	w0, [x19]
   854e0:	91000442 	add	x2, x2, #0x1
   854e4:	d503201f 	nop
   854e8:	b9400020 	ldr	w0, [x1]
   854ec:	372fffe0 	tbnz	w0, #5, 854e8 <__delay_32+0x80>
   854f0:	b9000083 	str	w3, [x4]
   854f4:	39400043 	ldrb	w3, [x2]
   854f8:	35ffff43 	cbnz	w3, 854e0 <__delay_32+0x78>
   854fc:	f9400bf3 	ldr	x19, [sp, #16]
   85500:	a8c57bfd 	ldp	x29, x30, [sp], #80
   85504:	d65f03c0 	ret
	...

0000000000085510 <_ZN5stdio4getcEv>:
   85510:	d2820301 	mov	x1, #0x1018                	// #4120
   85514:	f2a7e401 	movk	x1, #0x3f20, lsl #16
   85518:	b9400020 	ldr	w0, [x1]
   8551c:	3727ffe0 	tbnz	w0, #4, 85518 <_ZN5stdio4getcEv+0x8>
   85520:	d2820000 	mov	x0, #0x1000                	// #4096
   85524:	f2a7e400 	movk	x0, #0x3f20, lsl #16
   85528:	b9400000 	ldr	w0, [x0]
   8552c:	d65f03c0 	ret

0000000000085530 <_ZN5stdio4putcEc>:
   85530:	12001c00 	and	w0, w0, #0xff
   85534:	d2820302 	mov	x2, #0x1018                	// #4120
   85538:	f2a7e402 	movk	x2, #0x3f20, lsl #16
   8553c:	d503201f 	nop
   85540:	b9400041 	ldr	w1, [x2]
   85544:	372fffe1 	tbnz	w1, #5, 85540 <_ZN5stdio4putcEc+0x10>
   85548:	d2820001 	mov	x1, #0x1000                	// #4096
   8554c:	f2a7e401 	movk	x1, #0x3f20, lsl #16
   85550:	b9000020 	str	w0, [x1]
   85554:	d65f03c0 	ret
   85558:	d503201f 	nop
   8555c:	d503201f 	nop

0000000000085560 <_ZN5stdio4putsEPKc>:
   85560:	39400003 	ldrb	w3, [x0]
   85564:	34000183 	cbz	w3, 85594 <_ZN5stdio4putsEPKc+0x34>
   85568:	d2820302 	mov	x2, #0x1018                	// #4120
   8556c:	f2a7e402 	movk	x2, #0x3f20, lsl #16
   85570:	d2820004 	mov	x4, #0x1000                	// #4096
   85574:	f2a7e404 	movk	x4, #0x3f20, lsl #16
   85578:	91000400 	add	x0, x0, #0x1
   8557c:	d503201f 	nop
   85580:	b9400041 	ldr	w1, [x2]
   85584:	372fffe1 	tbnz	w1, #5, 85580 <_ZN5stdio4putsEPKc+0x20>
   85588:	b9000083 	str	w3, [x4]
   8558c:	39400003 	ldrb	w3, [x0]
   85590:	35ffff43 	cbnz	w3, 85578 <_ZN5stdio4putsEPKc+0x18>
   85594:	d65f03c0 	ret
   85598:	d503201f 	nop
   8559c:	d503201f 	nop

00000000000855a0 <_ZN5stdio4getsEPci>:
   855a0:	a9bc7bfd 	stp	x29, x30, [sp, #-64]!
   855a4:	910003fd 	mov	x29, sp
   855a8:	a90153f3 	stp	x19, x20, [sp, #16]
   855ac:	d2800014 	mov	x20, #0x0                   	// #0
   855b0:	a9025bf5 	stp	x21, x22, [sp, #32]
   855b4:	2a0103f5 	mov	w21, w1
   855b8:	a90363f7 	stp	x23, x24, [sp, #48]
   855bc:	aa0003f7 	mov	x23, x0
   855c0:	14000007 	b	855dc <_ZN5stdio4getsEPci+0x3c>
   855c4:	710006bf 	cmp	w21, #0x1
   855c8:	5400024d 	b.le	85610 <_ZN5stdio4getsEPci+0x70>
   855cc:	97ffffd9 	bl	85530 <_ZN5stdio4putcEc>
   855d0:	510006b5 	sub	w21, w21, #0x1
   855d4:	38346af6 	strb	w22, [x23, x20]
   855d8:	91000694 	add	x20, x20, #0x1
   855dc:	97ffffcd 	bl	85510 <_ZN5stdio4getcEv>
   855e0:	12001c16 	and	w22, w0, #0xff
   855e4:	710036df 	cmp	w22, #0xd
   855e8:	54fffee1 	b.ne	855c4 <_ZN5stdio4getsEPci+0x24>  // b.any
   855ec:	52800140 	mov	w0, #0xa                   	// #10
   855f0:	97ffffd0 	bl	85530 <_ZN5stdio4putcEc>
   855f4:	8b35c2f5 	add	x21, x23, w21, sxtw
   855f8:	381ff2bf 	sturb	wzr, [x21, #-1]
   855fc:	a94153f3 	ldp	x19, x20, [sp, #16]
   85600:	a9425bf5 	ldp	x21, x22, [sp, #32]
   85604:	a94363f7 	ldp	x23, x24, [sp, #48]
   85608:	a8c47bfd 	ldp	x29, x30, [sp], #64
   8560c:	d65f03c0 	ret
   85610:	52800140 	mov	w0, #0xa                   	// #10
   85614:	97ffffc7 	bl	85530 <_ZN5stdio4putcEc>
   85618:	71002adf 	cmp	w22, #0xa
   8561c:	54fffec1 	b.ne	855f4 <_ZN5stdio4getsEPci+0x54>  // b.any
   85620:	3834caff 	strb	wzr, [x23, w20, sxtw]
   85624:	a94153f3 	ldp	x19, x20, [sp, #16]
   85628:	a9425bf5 	ldp	x21, x22, [sp, #32]
   8562c:	a94363f7 	ldp	x23, x24, [sp, #48]
   85630:	a8c47bfd 	ldp	x29, x30, [sp], #64
   85634:	d65f03c0 	ret
	...

0000000000085640 <_ZN5timer4arch3arm5raspi4initEv>:
   85640:	a9bc7bfd 	stp	x29, x30, [sp, #-64]!
   85644:	910003fd 	mov	x29, sp
   85648:	a90153f3 	stp	x19, x20, [sp, #16]
   8564c:	f0000234 	adrp	x20, cc000 <_ZN10graphics2d4font12_GLOBAL__N_110bufferDataE+0x20c78>
   85650:	a9025bf5 	stp	x21, x22, [sp, #32]
   85654:	f941f295 	ldr	x21, [x20, #992]
   85658:	b94002a0 	ldr	w0, [x21]
   8565c:	f9001bf7 	str	x23, [sp, #48]
   85660:	34000140 	cbz	w0, 85688 <_ZN5timer4arch3arm5raspi4initEv+0x48>
   85664:	52800013 	mov	w19, #0x0                   	// #0
   85668:	52800400 	mov	w0, #0x20                  	// #32
   8566c:	97ffffb1 	bl	85530 <_ZN5stdio4putcEc>
   85670:	52800400 	mov	w0, #0x20                  	// #32
   85674:	97ffffaf 	bl	85530 <_ZN5stdio4putcEc>
   85678:	b94002a1 	ldr	w1, [x21]
   8567c:	11000673 	add	w19, w19, #0x1
   85680:	6b13003f 	cmp	w1, w19
   85684:	54ffff28 	b.hi	85668 <_ZN5timer4arch3arm5raspi4initEv+0x28>  // b.pmore
   85688:	f0000015 	adrp	x21, 88000 <__rodata_start>
   8568c:	910042a0 	add	x0, x21, #0x10
   85690:	97ffffb4 	bl	85560 <_ZN5stdio4putsEPKc>
   85694:	f941f296 	ldr	x22, [x20, #992]
   85698:	d2a80001 	mov	x1, #0x40000000            	// #1073741824
   8569c:	b94002c0 	ldr	w0, [x22]
   856a0:	11000400 	add	w0, w0, #0x1
   856a4:	b90002c0 	str	w0, [x22]
   856a8:	b9400037 	ldr	w23, [x1]
   856ac:	34000160 	cbz	w0, 856d8 <_ZN5timer4arch3arm5raspi4initEv+0x98>
   856b0:	52800013 	mov	w19, #0x0                   	// #0
   856b4:	d503201f 	nop
   856b8:	52800400 	mov	w0, #0x20                  	// #32
   856bc:	97ffff9d 	bl	85530 <_ZN5stdio4putcEc>
   856c0:	52800400 	mov	w0, #0x20                  	// #32
   856c4:	97ffff9b 	bl	85530 <_ZN5stdio4putcEc>
   856c8:	b94002c1 	ldr	w1, [x22]
   856cc:	11000673 	add	w19, w19, #0x1
   856d0:	6b13003f 	cmp	w1, w19
   856d4:	54ffff28 	b.hi	856b8 <_ZN5timer4arch3arm5raspi4initEv+0x78>  // b.pmore
   856d8:	910042b3 	add	x19, x21, #0x10
   856dc:	9100a260 	add	x0, x19, #0x28
   856e0:	97ffffa0 	bl	85560 <_ZN5stdio4putsEPKc>
   856e4:	2a1703e0 	mov	w0, w23
   856e8:	94000322 	bl	86370 <_Z9to_stringj>
   856ec:	97ffff9d 	bl	85560 <_ZN5stdio4putsEPKc>
   856f0:	9100e260 	add	x0, x19, #0x38
   856f4:	97ffff9b 	bl	85560 <_ZN5stdio4putsEPKc>
   856f8:	f941f296 	ldr	x22, [x20, #992]
   856fc:	d2800101 	mov	x1, #0x8                   	// #8
   85700:	f2a80001 	movk	x1, #0x4000, lsl #16
   85704:	b94002c0 	ldr	w0, [x22]
   85708:	b9400037 	ldr	w23, [x1]
   8570c:	34000160 	cbz	w0, 85738 <_ZN5timer4arch3arm5raspi4initEv+0xf8>
   85710:	52800013 	mov	w19, #0x0                   	// #0
   85714:	d503201f 	nop
   85718:	52800400 	mov	w0, #0x20                  	// #32
   8571c:	97ffff85 	bl	85530 <_ZN5stdio4putcEc>
   85720:	52800400 	mov	w0, #0x20                  	// #32
   85724:	97ffff83 	bl	85530 <_ZN5stdio4putcEc>
   85728:	b94002c1 	ldr	w1, [x22]
   8572c:	11000673 	add	w19, w19, #0x1
   85730:	6b13003f 	cmp	w1, w19
   85734:	54ffff28 	b.hi	85718 <_ZN5timer4arch3arm5raspi4initEv+0xd8>  // b.pmore
   85738:	910042b3 	add	x19, x21, #0x10
   8573c:	91010260 	add	x0, x19, #0x40
   85740:	97ffff88 	bl	85560 <_ZN5stdio4putsEPKc>
   85744:	2a1703e0 	mov	w0, w23
   85748:	9400030a 	bl	86370 <_Z9to_stringj>
   8574c:	97ffff85 	bl	85560 <_ZN5stdio4putsEPKc>
   85750:	9100e260 	add	x0, x19, #0x38
   85754:	97ffff83 	bl	85560 <_ZN5stdio4putsEPKc>
   85758:	f941f294 	ldr	x20, [x20, #992]
   8575c:	b9400280 	ldr	w0, [x20]
   85760:	51000400 	sub	w0, w0, #0x1
   85764:	b9000280 	str	w0, [x20]
   85768:	34000140 	cbz	w0, 85790 <_ZN5timer4arch3arm5raspi4initEv+0x150>
   8576c:	52800013 	mov	w19, #0x0                   	// #0
   85770:	52800400 	mov	w0, #0x20                  	// #32
   85774:	97ffff6f 	bl	85530 <_ZN5stdio4putcEc>
   85778:	52800400 	mov	w0, #0x20                  	// #32
   8577c:	97ffff6d 	bl	85530 <_ZN5stdio4putcEc>
   85780:	b9400281 	ldr	w1, [x20]
   85784:	11000673 	add	w19, w19, #0x1
   85788:	6b13003f 	cmp	w1, w19
   8578c:	54ffff28 	b.hi	85770 <_ZN5timer4arch3arm5raspi4initEv+0x130>  // b.pmore
   85790:	910042a0 	add	x0, x21, #0x10
   85794:	a94153f3 	ldp	x19, x20, [sp, #16]
   85798:	91016000 	add	x0, x0, #0x58
   8579c:	a9425bf5 	ldp	x21, x22, [sp, #32]
   857a0:	f9401bf7 	ldr	x23, [sp, #48]
   857a4:	a8c47bfd 	ldp	x29, x30, [sp], #64
   857a8:	17ffff6e 	b	85560 <_ZN5stdio4putsEPKc>
   857ac:	d503201f 	nop

00000000000857b0 <_ZN5timer4arch3arm5raspi9set_timerENS2_5TimerEj>:
   857b0:	a9bd7bfd 	stp	x29, x30, [sp, #-48]!
   857b4:	910003fd 	mov	x29, sp
   857b8:	a90153f3 	stp	x19, x20, [sp, #16]
   857bc:	2a0103f3 	mov	w19, w1
   857c0:	a9025bf5 	stp	x21, x22, [sp, #32]
   857c4:	12001c15 	and	w21, w0, #0xff
   857c8:	d5033fbf 	dmb	sy
   857cc:	d2860014 	mov	x20, #0x3000                	// #12288
   857d0:	f2a7e014 	movk	x20, #0x3f00, lsl #16
   857d4:	52800020 	mov	w0, #0x1                   	// #1
   857d8:	39400281 	ldrb	w1, [x20]
   857dc:	1ad52000 	lsl	w0, w0, w21
   857e0:	33000c01 	bfxil	w1, w0, #0, #4
   857e4:	39000281 	strb	w1, [x20]
   857e8:	97fff4fe 	bl	82be0 <_ZN9scheduler4lockEv>
   857ec:	b9400682 	ldr	w2, [x20, #4]
   857f0:	8b350a83 	add	x3, x20, w21, uxtb #2
   857f4:	14000003 	b	85800 <_ZN5timer4arch3arm5raspi9set_timerENS2_5TimerEj+0x50>
   857f8:	b9400682 	ldr	w2, [x20, #4]
   857fc:	11002a73 	add	w19, w19, #0xa
   85800:	0b020261 	add	w1, w19, w2
   85804:	b9000c61 	str	w1, [x3, #12]
   85808:	b9400680 	ldr	w0, [x20, #4]
   8580c:	6b00005f 	cmp	w2, w0
   85810:	7a403020 	ccmp	w1, w0, #0x0, cc  // cc = lo, ul, last
   85814:	54ffff29 	b.ls	857f8 <_ZN5timer4arch3arm5raspi9set_timerENS2_5TimerEj+0x48>  // b.plast
   85818:	97fff4fa 	bl	82c00 <_ZN9scheduler6unlockEv>
   8581c:	d5033fbf 	dmb	sy
   85820:	f0000221 	adrp	x1, cc000 <_ZN10graphics2d4font12_GLOBAL__N_110bufferDataE+0x20c78>
   85824:	f941f036 	ldr	x22, [x1, #992]
   85828:	b94002c0 	ldr	w0, [x22]
   8582c:	34000160 	cbz	w0, 85858 <_ZN5timer4arch3arm5raspi9set_timerENS2_5TimerEj+0xa8>
   85830:	52800014 	mov	w20, #0x0                   	// #0
   85834:	d503201f 	nop
   85838:	52800400 	mov	w0, #0x20                  	// #32
   8583c:	97ffff3d 	bl	85530 <_ZN5stdio4putcEc>
   85840:	52800400 	mov	w0, #0x20                  	// #32
   85844:	97ffff3b 	bl	85530 <_ZN5stdio4putcEc>
   85848:	b94002c0 	ldr	w0, [x22]
   8584c:	11000694 	add	w20, w20, #0x1
   85850:	6b14001f 	cmp	w0, w20
   85854:	54ffff28 	b.hi	85838 <_ZN5timer4arch3arm5raspi9set_timerENS2_5TimerEj+0x88>  // b.pmore
   85858:	f0000014 	adrp	x20, 88000 <__rodata_start>
   8585c:	91004294 	add	x20, x20, #0x10
   85860:	91018280 	add	x0, x20, #0x60
   85864:	97ffff3f 	bl	85560 <_ZN5stdio4putsEPKc>
   85868:	2a1503e0 	mov	w0, w21
   8586c:	940002c1 	bl	86370 <_Z9to_stringj>
   85870:	97ffff3c 	bl	85560 <_ZN5stdio4putsEPKc>
   85874:	9101c280 	add	x0, x20, #0x70
   85878:	97ffff3a 	bl	85560 <_ZN5stdio4putsEPKc>
   8587c:	2a1303e0 	mov	w0, w19
   85880:	940002bc 	bl	86370 <_Z9to_stringj>
   85884:	97ffff37 	bl	85560 <_ZN5stdio4putsEPKc>
   85888:	9100e280 	add	x0, x20, #0x38
   8588c:	97ffff35 	bl	85560 <_ZN5stdio4putsEPKc>
   85890:	71000abf 	cmp	w21, #0x2
   85894:	54000140 	b.eq	858bc <_ZN5timer4arch3arm5raspi9set_timerENS2_5TimerEj+0x10c>  // b.none
   85898:	540000e8 	b.hi	858b4 <_ZN5timer4arch3arm5raspi9set_timerENS2_5TimerEj+0x104>  // b.pmore
   8589c:	34000235 	cbz	w21, 858e0 <_ZN5timer4arch3arm5raspi9set_timerENS2_5TimerEj+0x130>
   858a0:	a94153f3 	ldp	x19, x20, [sp, #16]
   858a4:	52800020 	mov	w0, #0x1                   	// #1
   858a8:	a9425bf5 	ldp	x21, x22, [sp, #32]
   858ac:	a8c37bfd 	ldp	x29, x30, [sp], #48
   858b0:	17fffc78 	b	84a90 <_ZN3irq4arch3arm5raspi6enableENS2_3IrqE>
   858b4:	71000ebf 	cmp	w21, #0x3
   858b8:	540000c1 	b.ne	858d0 <_ZN5timer4arch3arm5raspi9set_timerENS2_5TimerEj+0x120>  // b.any
   858bc:	2a1503e0 	mov	w0, w21
   858c0:	a94153f3 	ldp	x19, x20, [sp, #16]
   858c4:	a9425bf5 	ldp	x21, x22, [sp, #32]
   858c8:	a8c37bfd 	ldp	x29, x30, [sp], #48
   858cc:	17fffc71 	b	84a90 <_ZN3irq4arch3arm5raspi6enableENS2_3IrqE>
   858d0:	a94153f3 	ldp	x19, x20, [sp, #16]
   858d4:	a9425bf5 	ldp	x21, x22, [sp, #32]
   858d8:	a8c37bfd 	ldp	x29, x30, [sp], #48
   858dc:	d65f03c0 	ret
   858e0:	a94153f3 	ldp	x19, x20, [sp, #16]
   858e4:	52800000 	mov	w0, #0x0                   	// #0
   858e8:	a9425bf5 	ldp	x21, x22, [sp, #32]
   858ec:	a8c37bfd 	ldp	x29, x30, [sp], #48
   858f0:	17fffc68 	b	84a90 <_ZN3irq4arch3arm5raspi6enableENS2_3IrqE>
   858f4:	d503201f 	nop
   858f8:	d503201f 	nop
   858fc:	d503201f 	nop

0000000000085900 <_ZN5timer4arch3arm5raspi12on_interruptENS2_5TimerE>:
   85900:	12001c00 	and	w0, w0, #0xff
   85904:	d5033fbf 	dmb	sy
   85908:	d2860002 	mov	x2, #0x3000                	// #12288
   8590c:	f2a7e002 	movk	x2, #0x3f00, lsl #16
   85910:	52800021 	mov	w1, #0x1                   	// #1
   85914:	39400043 	ldrb	w3, [x2]
   85918:	1ac02021 	lsl	w1, w1, w0
   8591c:	33000c23 	bfxil	w3, w1, #0, #4
   85920:	39000043 	strb	w3, [x2]
   85924:	d5033fbf 	dmb	sy
   85928:	7100081f 	cmp	w0, #0x2
   8592c:	540000e0 	b.eq	85948 <_ZN5timer4arch3arm5raspi12on_interruptENS2_5TimerE+0x48>  // b.none
   85930:	54000068 	b.hi	8593c <_ZN5timer4arch3arm5raspi12on_interruptENS2_5TimerE+0x3c>  // b.pmore
   85934:	340000e0 	cbz	w0, 85950 <_ZN5timer4arch3arm5raspi12on_interruptENS2_5TimerE+0x50>
   85938:	17fff5d2 	b	83080 <_ZN9scheduler4arch3arm8on_timerEv>
   8593c:	71000c1f 	cmp	w0, #0x3
   85940:	54000061 	b.ne	8594c <_ZN5timer4arch3arm5raspi12on_interruptENS2_5TimerE+0x4c>  // b.any
   85944:	17fff427 	b	829e0 <_ZN9scheduler4arch3arm13on_slow_timerEv>
   85948:	17fffc6a 	b	84af0 <_ZN3irq4arch3arm5raspi7disableENS2_3IrqE>
   8594c:	d65f03c0 	ret
   85950:	52800000 	mov	w0, #0x0                   	// #0
   85954:	17fffc67 	b	84af0 <_ZN3irq4arch3arm5raspi7disableENS2_3IrqE>
   85958:	d503201f 	nop
   8595c:	d503201f 	nop

0000000000085960 <_ZN5timer3nowEv>:
   85960:	d5033fbf 	dmb	sy
   85964:	d2860000 	mov	x0, #0x3000                	// #12288
   85968:	f2a7e000 	movk	x0, #0x3f00, lsl #16
   8596c:	b9400400 	ldr	w0, [x0, #4]
   85970:	d5033fbf 	dmb	sy
   85974:	d65f03c0 	ret
   85978:	d503201f 	nop
   8597c:	d503201f 	nop

0000000000085980 <_ZN5timer5now64Ev>:
   85980:	d5033fbf 	dmb	sy
   85984:	d2860002 	mov	x2, #0x3000                	// #12288
   85988:	f2a7e002 	movk	x2, #0x3f00, lsl #16
   8598c:	b9400843 	ldr	w3, [x2, #8]
   85990:	b9400441 	ldr	w1, [x2, #4]
   85994:	b9400840 	ldr	w0, [x2, #8]
   85998:	6b00007f 	cmp	w3, w0
   8599c:	54000040 	b.eq	859a4 <_ZN5timer5now64Ev+0x24>  // b.none
   859a0:	b9400441 	ldr	w1, [x2, #4]
   859a4:	d5033fbf 	dmb	sy
   859a8:	2a0103e1 	mov	w1, w1
   859ac:	aa008020 	orr	x0, x1, x0, lsl #32
   859b0:	d65f03c0 	ret
   859b4:	d503201f 	nop
   859b8:	d503201f 	nop
   859bc:	d503201f 	nop

00000000000859c0 <_ZN5timer6udelayEj>:
   859c0:	d10083ff 	sub	sp, sp, #0x20
   859c4:	b9000fe0 	str	w0, [sp, #12]
   859c8:	d2860000 	mov	x0, #0x3000                	// #12288
   859cc:	f2a7e000 	movk	x0, #0x3f00, lsl #16
   859d0:	b9400400 	ldr	w0, [x0, #4]
   859d4:	b9001fe0 	str	w0, [sp, #28]
   859d8:	d2860000 	mov	x0, #0x3000                	// #12288
   859dc:	f2a7e000 	movk	x0, #0x3f00, lsl #16
   859e0:	b9400401 	ldr	w1, [x0, #4]
   859e4:	b9401fe0 	ldr	w0, [sp, #28]
   859e8:	4b000020 	sub	w0, w1, w0
   859ec:	b9001be0 	str	w0, [sp, #24]
   859f0:	b9401be0 	ldr	w0, [sp, #24]
   859f4:	b9400fe1 	ldr	w1, [sp, #12]
   859f8:	6b00003f 	cmp	w1, w0
   859fc:	1a9f97e0 	cset	w0, hi  // hi = pmore
   85a00:	12001c00 	and	w0, w0, #0xff
   85a04:	7100001f 	cmp	w0, #0x0
   85a08:	54000040 	b.eq	85a10 <_ZN5timer6udelayEj+0x50>  // b.none
   85a0c:	17fffff3 	b	859d8 <_ZN5timer6udelayEj+0x18>
   85a10:	d503201f 	nop
   85a14:	910083ff 	add	sp, sp, #0x20
   85a18:	d65f03c0 	ret
   85a1c:	00000000 	.inst	0x00000000 ; undefined

0000000000085a20 <_ZN4arch3arm5raspi3usb4initEb>:
   85a20:	a9bc7bfd 	stp	x29, x30, [sp, #-64]!
   85a24:	910003fd 	mov	x29, sp
   85a28:	a90153f3 	stp	x19, x20, [sp, #16]
   85a2c:	f0000234 	adrp	x20, cc000 <_ZN10graphics2d4font12_GLOBAL__N_110bufferDataE+0x20c78>
   85a30:	a9025bf5 	stp	x21, x22, [sp, #32]
   85a34:	f941f295 	ldr	x21, [x20, #992]
   85a38:	b94002a0 	ldr	w0, [x21]
   85a3c:	34000160 	cbz	w0, 85a68 <_ZN4arch3arm5raspi3usb4initEb+0x48>
   85a40:	52800013 	mov	w19, #0x0                   	// #0
   85a44:	d503201f 	nop
   85a48:	52800400 	mov	w0, #0x20                  	// #32
   85a4c:	97fffeb9 	bl	85530 <_ZN5stdio4putcEc>
   85a50:	52800400 	mov	w0, #0x20                  	// #32
   85a54:	97fffeb7 	bl	85530 <_ZN5stdio4putcEc>
   85a58:	b94002a0 	ldr	w0, [x21]
   85a5c:	11000673 	add	w19, w19, #0x1
   85a60:	6b13001f 	cmp	w0, w19
   85a64:	54ffff28 	b.hi	85a48 <_ZN4arch3arm5raspi3usb4initEb+0x28>  // b.pmore
   85a68:	f0000000 	adrp	x0, 88000 <__rodata_start>
   85a6c:	911fc000 	add	x0, x0, #0x7f0
   85a70:	97fffebc 	bl	85560 <_ZN5stdio4putsEPKc>
